e000  05            EINT                 -- Set global interrupt enable bit
e001  09            STSP                 -- (SP) -> (B)
e002  0d            LDSP                 -- (B) -> (SP)
e003  11                                 -- unknown instruction
e004  15  19        XOR R25,A            -- 
e006  1d  21        CMP R33,A            -- 
e008  25  29        XOR %41,A            -- 
e00a  2d  31        CMP %49,A            -- 
e00c  04                                 -- unknown instruction
e00d  08            POP ST               -- 
e00e  0c                                 -- unknown instruction
e00f  10                                 -- unknown instruction
e010  14  18        OR R24,A             -- 
e012  1c  20        MOV R32,A            -- 
e014  24  28        OR %40,A             -- 
e016  2c  30        MOV %48,A            -- 
e018  44  48 4c     OR R72,R76           -- 
e01b  50                                 -- unknown instruction
e01c  54  58        OR %88,B             -- 
e01e  5c  60        MOV %96,B            -- 
e020  64  68        OR A,B               -- 
e022  6c  70        MOV B,A              -- 
e024  84  88        ORP A,P136           -- 
e026  8c  90 94     BR @>9094            -- 
e029  98  9c a0     MOVD R156,R160       -- 
e02c  a4  a8 ac     ORP %168,P172        -- 
e02f  b0            TSTA                 -- 
e030  c4            INV B                -- 
e031  c8            PUSH B               -- 
e032  cc            RR B                 -- 
e033  d0  d4        MOV A,R212           -- 
e035  d8  dc        PUSH R220            -- 
e037  e0  e4        JMP @>e11b           -- 
e039  e8            TRAP-0               -- 
e03a  ec            TRAP-4               -- 
e03b  f0            TRAP-8               -- 
e03c  f4            TRAP-12              -- 
e03d  25  27        XOR %39,A            -- 
e03f  29  2a        ADC %42,A            -- 
e041  2c  2e        MOV %46,A            -- 
e043  31                                 -- unknown instruction
e044  33  36        AND R54,B            -- 
e046  3a  3e        SUB R62,B            -- 
e048  42  47 4c     MOV R71,R76          -- 
e04b  52  60        MOV %96,B            -- 
e04d  7d  aa ff     CMP %170,R255        -- 
e050  00            NOP                  -- 
e051  00            NOP                  -- 
e052  00            NOP                  -- 
e053  00            NOP                  -- 
e054  00            NOP                  -- 
e055  89                                 -- unknown instruction
e056  87  86 85     BTJZP A,P134,@>e0db  -- 
MAIN:
e059  a2  aa 00     MOVP %170,P0         -- 
e05c  52  64        MOV %100,B           -- 
e05e  0d            LDSP                 -- (B) -> (SP)
e05f  b5            CLR A                -- 
e060  52  7e        MOV %126,B           -- 
e062  ab  00 01     STA @>0001(B)        -- 
e065  ca  fb        DJNZ B,@>e160        -- 
e067  8b  a0 05     STA @>a005           -- 
e06a  8b  a0 00     STA @>a000           -- 
e06d  22  17        MOV %23,A            -- 
e06f  8b  d0 00     STA @>d000           -- 
e072  22  96        MOV %150,A           -- 
e074  8b  d0 00     STA @>d000           -- 
e077  72  ff 59     MOV %255,R89         -- 
e07a  88  00 19 03  MOVD %>0019,R3       -- 
e07e  52  08        MOV %8,B             -- 
e080  22  ff        MOV %255,A           -- 
e082  9b  03        STA *R3              -- 
e084  d2  03        DEC R3               -- 
e086  ca  fa        DJNZ B,@>e180        -- 
e088  72  ff 1a     MOV %255,R26         -- 
e08b  72  ff 1c     MOV %255,R28         -- 
e08e  72  ff 1e     MOV %255,R30         -- 
e091  72  ff 20     MOV %255,R32         -- 
e094  72  ff 22     MOV %255,R34         -- 
e097  72  ff 24     MOV %255,R36         -- 
e09a  72  ff 26     MOV %255,R38         -- 
e09d  72  ff 28     MOV %255,R40         -- 
e0a0  22  13        MOV %19,A            -- 
e0a2  52  3d        MOV %61,B            -- 
e0a4  88  c0 90 03  MOVD %>c090,R3       -- 
e0a8  9b  03        STA *R3              -- 
e0aa  db  03        DECD R3              -- 
e0ac  ca  fa        DJNZ B,@>e1a6        -- 
e0ae  88  c0 0c 3e  MOVD %>c00c,R62      -- 
e0b2  72  06 07     MOV %6,R7            -- 
e0b5  88  c0 1c 38  MOVD %>c01c,R56      -- 
e0b9  88  c0 17 3a  MOVD %>c017,R58      -- 
e0bd  8e  e2 d3     CALL @>e2d3          -- 
e0c0  88  00 5f 03  MOVD %>005f,R3       -- 
e0c4  88  c0 00 40  MOVD %>c000,R64      -- 
e0c8  b5            CLR A                -- 
e0c9  8b  70 00     STA @>7000           -- 
e0cc  8b  c0 91     STA @>c091           -- 
e0cf  88  c0 a6 2b  MOVD %>c0a6,R43      -- 
e0d3  72  20 41     MOV %32,R65          -- 
e0d6  52  14        MOV %20,B            -- 
e0d8  8e  e7 b3     CALL @>e7b3          -- 
e0db  8e  e7 9b     CALL @>e79b          -- 
e0de  a2  3d 02     MOVP %61,P2          -- 
e0e1  8a  c7 ff     LDA @>c7ff           -- 
e0e4  23  03        AND %3,A             -- 
e0e6  8b  c7 ff     STA @>c7ff           -- 
e0e9  b6            XCHB A               -- 
e0ea  aa  e0 55     LDA @>e055(B)        -- 
e0ed  82  03        MOVP A,P3            -- 
e0ef  a4  15 00     ORP %21,P0           -- 
e0f2  06            DINT                 -- Clear global interrupt enable bit
e0f3  8a  60 00     LDA @>6000           -- 
e0f6  26  80 0f     BTJO %>128,A,@>e105  -- 
e0f9  74  20 31     OR %32,R49           -- 
e0fc  f3            TRAP-11              -- 
e0fd  72  30 2f     MOV %48,R47          -- 
e100  f5            TRAP-13              -- 
e101  73  fe 30     AND %254,R48         -- 
e104  f4            TRAP-12              -- 
e105  8c  f3 7f     BR @>f37f            -- 
e108  05            EINT                 -- Set global interrupt enable bit
e109  76  04 42 1a  BTJO %>4,R66,@>e14b  -- 
e10d  76  80 36 0a  BTJO %>128,R54,@>e143 -- 
e111  7d  00 34     CMP %0,R52           -- 
e114  e6  05        JNE @>e119           -- 
e116  7d  00 35     CMP %0,R53           -- 
e119  e2  0c        JEQ @>e125           -- 
e11b  74  80 06     OR %128,R6           -- 
e11e  12  06        MOV R6,A             -- 
e120  8b  a0 00     STA @>a000           -- 
e123  74  20 2f     OR %32,R47           -- 
e126  f5            TRAP-13              -- 
e127  22  ff        MOV %255,A           -- 
e129  d0  30        MOV A,R48            -- 
e12b  8b  a0 06     STA @>a006           -- 
e12e  72  18 31     MOV %24,R49          -- 
e131  f3            TRAP-11              -- 
e132  22  ef        MOV %239,A           -- 
e134  d0  30        MOV A,R48            -- 
e136  8b  a0 06     STA @>a006           -- 
e139  72  80 49     MOV %128,R73         -- 
e13c  d5  48        CLR R72              -- 
e13e  8e  e2 9f     CALL @>e29f          -- 
e141  d1  47        MOV B,R71            -- 
e143  32  48        MOV R72,B            -- 
e145  aa  c0 20     LDA @>c020(B)        -- 
e148  5d  07        CMP %7,B             -- 
e14a  e4  35        JGT @>e17f           -- 
e14c  de  49        RL R73               -- 
e14e  46  49 34 37  BTJO R73,R52,@>e182  -- 
e152  28  07        ADD %7,A             -- 
e154  e7  02        JL @>e156            -- 
e156  22  ff        MOV %255,A           -- 
e158  c8            PUSH B               -- 
e159  32  47        MOV R71,B            -- 
e15b  6a  e3        SUB B,A              -- 
e15d  0f                                 -- unknown instruction
e15e  c9            POP B                -- 
e15f  5d  07        CMP %7,B             -- 
e161  e4  05        JGT @>e166           -- 
e163  44  49 34     OR R73,R52           -- 
e166  e0  55        JMP @>e1bb           -- 
e168  44  49 35     OR R73,R53           -- 
e16b  e0  50        JMP @>e1bb           -- 
e16d  c9            POP B                -- 
e16e  aa  c0 20     LDA @>c020(B)        -- 
e171  2a  07        SUB %7,A             -- 
e173  e3  02        JHS @>e175           -- 
e175  22  00        MOV %0,A             -- 
e177  c8            PUSH B               -- 
e178  32  47        MOV R71,B            -- 
e17a  3a  00        SUB R0,B             -- 
e17c  e7  e0        JL @>e25c            -- 
e17e  c9            POP B                -- 
e17f  e0  3c        JMP @>e1bb           -- 
e181  de  49        RL R73               -- 
e183  46  49 35 02  BTJO R73,R53,@>e1b8  -- 
e187  e0  c9        JMP @>e250           -- 
e189  aa  c0 20     LDA @>c020(B)        -- 
e18c  d0  51        MOV A,R81            -- 
e18e  28  01        ADD %1,A             -- 
e190  e7  02        JL @>e192            -- 
e192  22  ff        MOV %255,A           -- 
e194  c8            PUSH B               -- 
e195  32  47        MOV R71,B            -- 
e197  6a  e3        SUB B,A              -- 
e199  04                                 -- unknown instruction
e19a  62  c9        MOV B,A              -- 
e19c  e0  15        JMP @>e1b1           -- 
e19e  12  51        MOV R81,A            -- 
e1a0  2a  01        SUB %1,A             -- 
e1a2  e3  02        JHS @>e1a4           -- 
e1a4  22  00        MOV %0,A             -- 
e1a6  3a  00        SUB R0,B             -- 
e1a8  e7  05        JL @>e1ad            -- 
e1aa  12  51        MOV R81,A            -- 
e1ac  c9            POP B                -- 
e1ad  e0  04        JMP @>e1b1           -- 
e1af  32  47        MOV R71,B            -- 
e1b1  e0  e7        JMP @>e298           -- 
e1b3  ab  c0 20     STA @>c020(B)        -- 
e1b6  58  14        ADD %20,B            -- 
e1b8  ab  c0 20     STA @>c020(B)        -- 
e1bb  5a  14        SUB %20,B            -- 
e1bd  c3            INC B                -- 
e1be  d1  48        MOV B,R72            -- 
e1c0  5d  08        CMP %8,B             -- 
e1c2  e2  08        JEQ @>e1ca           -- 
e1c4  5d  10        CMP %16,B            -- 
e1c6  e2  0e        JEQ @>e1d4           -- 
e1c8  f8            TRAP-16              -- 
e1c9  8c  e1 3e     BR @>e13e            -- 
e1cc  72  1f 30     MOV %31,R48          -- 
e1cf  f4            TRAP-12              -- 
e1d0  73  f8 31     AND %248,R49         -- 
e1d3  f3            TRAP-11              -- 
e1d4  e0  f3        JMP @>e2c7           -- 
e1d6  72  ff 30     MOV %255,R48         -- 
e1d9  f4            TRAP-12              -- 
e1da  f6            TRAP-14              -- 
e1db  52  14        MOV %20,B            -- 
e1dd  aa  c0 20     LDA @>c020(B)        -- 
e1e0  72  01 4a     MOV %1,R74           -- 
e1e3  8e  e8 86     CALL @>e886          -- 
e1e6  00            NOP                  -- 
e1e7  5d  1b        CMP %27,B            -- 
e1e9  e2  04        JEQ @>e1ed           -- 
e1eb  f8            TRAP-16              -- 
e1ec  c3            INC B                -- 
e1ed  e0  ee        JMP @>e2db           -- 
e1ef  52  1c        MOV %28,B            -- 
e1f1  f6            TRAP-14              -- 
e1f2  aa  c0 20     LDA @>c020(B)        -- 
e1f5  72  02 4a     MOV %2,R74           -- 
e1f8  8e  e8 86     CALL @>e886          -- 
e1fb  5d  23        CMP %35,B            -- 
e1fd  e2  04        JEQ @>e201           -- 
e1ff  f8            TRAP-16              -- 
e200  c3            INC B                -- 
e201  e0  ef        JMP @>e2f0           -- 
e203  73  18 31     AND %24,R49          -- 
e206  74  01 31     OR %1,R49            -- 
e209  f3            TRAP-11              -- 
e20a  c5                                 -- unknown instruction
e20b  aa  c0 48     LDA @>c048(B)        -- 
e20e  8e  e8 9c     CALL @>e89c          -- 
e211  c3            INC B                -- 
e212  5d  06        CMP %6,B             -- 
e214  e2  03        JEQ @>e217           -- 
e216  f8            TRAP-16              -- 
e217  e0  f2        JMP @>e309           -- 
e219  f6            TRAP-14              -- 
e21a  aa  c0 48     LDA @>c048(B)        -- 
e21d  8e  e8 af     CALL @>e8af          -- 
e220  c3            INC B                -- 
e221  5d  0c        CMP %12,B            -- 
e223  e2  03        JEQ @>e226           -- 
e225  f8            TRAP-16              -- 
e226  e0  f2        JMP @>e318           -- 
e228  76  20 53 3c  BTJO %>32,R83,@>e27b -- 
e22c  77  01 42 1a  BTJZ %>1,R66,@>e26e  -- 
e230  a3  fe 00     ANDP %254,P0         -- 
e233  32  43        MOV R67,B            -- 
e235  8e  e7 c0     CALL @>e7c0          -- 
e238  8e  e7 b3     CALL @>e7b3          -- 
e23b  8e  f3 6b     CALL @>f36b          -- 
e23e  8b  c0 91     STA @>c091           -- 
e241  8e  e7 9b     CALL @>e79b          -- 
e244  73  fe 42     AND %254,R66         -- 
e247  a4  01 00     ORP %1,P0            -- 
e24a  73  3f 04     AND %63,R4           -- 
e24d  e2  33        JEQ @>e280           -- 
e24f  8a  c0 40     LDA @>c040           -- 
e252  2d  f8        CMP %248,A           -- 
e254  e3  28        JHS @>e27c           -- 
e256  2d  f0        CMP %240,A           -- 
e258  e3  1e        JHS @>e276           -- 
e25a  2d  e0        CMP %224,A           -- 
e25c  e3  12        JHS @>e26e           -- 
e25e  2d  c7        CMP %199,A           -- 
e260  e3  08        JHS @>e268           -- 
e262  88  06 82 46  MOVD %>0682,R70      -- 
e266  e0  1a        JMP @>e280           -- 
e268  e0  1f        JMP @>e287           -- 
e26a  88  10 46 46  MOVD %>1046,R70      -- 
e26e  e0  12        JMP @>e280           -- 
e270  72  c9 46     MOV %201,R70         -- 
e273  72  16 45     MOV %22,R69          -- 
e276  e0  0a        JMP @>e280           -- 
e278  88  20 8d 46  MOVD %>208d,R70      -- 
e27c  e0  04        JMP @>e280           -- 
e27e  88  37 57 46  MOVD %>3757,R70      -- 
e282  8c  e0 f2     BR @>e0f2            -- 
e285  d3  31        INC R49              -- 
e287  f3            TRAP-11              -- 
e288  0a            RETS                 -- return from subroutine
e289  a3  fe 00     ANDP %254,P0         -- 
e28c  32  43        MOV R67,B            -- 
e28e  8e  e7 c0     CALL @>e7c0          -- 
e291  8e  e7 8f     CALL @>e78f          -- 
e294  8e  e8 32     CALL @>e832          -- 
e297  73  df 53     AND %223,R83         -- 
e29a  a4  01 00     ORP %1,P0            -- 
e29d  e0  8d        JMP @>e32a           -- 
e29f  00            NOP                  -- 
e2a0  72  7f 52     MOV %127,R82         -- 
e2a3  72  80 51     MOV %128,R81         -- 
e2a6  52  80        MOV %128,B           -- 
e2a8  34  51        OR R81,B             -- 
e2aa  8e  e2 ba     CALL @>e2ba          -- 
e2ad  27  80 02     BTJZ %>128,A,@>e2af  -- 
e2b0  33  52        AND R82,B            -- 
e2b2  dc  52        RR R82               -- 
e2b4  dc  51        RR R81               -- 
e2b6  e7  f0        JL @>e3a6            -- 
e2b8  0a            RETS                 -- return from subroutine
e2b9  00            NOP                  -- 
e2ba  62  d0        MOV B,A              -- 
e2bc  09            STSP                 -- (SP) -> (B)
e2bd  8b  90 00     STA @>9000           -- 
e2c0  8b  90 00     STA @>9000           -- 
e2c3  8a  80 00     LDA @>8000           -- 
e2c6  8a  80 00     LDA @>8000           -- 
e2c9  0a            RETS                 -- return from subroutine
e2ca  73  18 31     AND %24,R49          -- 
e2cd  12  31        MOV R49,A            -- 
e2cf  8b  a0 07     STA @>a007           -- 
e2d2  0a            RETS                 -- return from subroutine
e2d3  52  09        MOV %9,B             -- 
e2d5  22  f4        MOV %244,A           -- 
e2d7  8b  b0 00     STA @>b000           -- 
e2da  00            NOP                  -- 
e2db  00            NOP                  -- 
e2dc  24  01        OR %1,A              -- 
e2de  8b  b0 00     STA @>b000           -- 
e2e1  24  02        OR %2,A              -- 
e2e3  8b  b0 00     STA @>b000           -- 
e2e6  00            NOP                  -- 
e2e7  00            NOP                  -- 
e2e8  00            NOP                  -- 
e2e9  00            NOP                  -- 
e2ea  23  fd        AND %253,A           -- 
e2ec  8b  b0 00     STA @>b000           -- 
e2ef  ca  f0        DJNZ B,@>e3df        -- 
e2f1  00            NOP                  -- 
e2f2  00            NOP                  -- 
e2f3  23  fc        AND %252,A           -- 
e2f5  8b  b0 00     STA @>b000           -- 
e2f8  0a            RETS                 -- return from subroutine
INT1_HANDLER:
e2f9  b8            PUSH A               -- 
e2fa  c8            PUSH B               -- 
e2fb  a3  ba 00     ANDP %186,P0         -- 
e2fe  05            EINT                 -- Set global interrupt enable bit
e2ff  8a  60 00     LDA @>6000           -- 
e302  26  40 2b     BTJO %>64,A,@>e32d   -- 
e305  73  f7 31     AND %247,R49         -- 
e308  8e  e3 4e     CALL @>e34e          -- 
e30b  23  1f        AND %31,A            -- 
e30d  2d  0f        CMP %15,A            -- 
e30f  e3  61        JHS @>e370           -- 
e311  2c  03        MOV %3,A             -- 
e313  74  08 31     OR %8,R49            -- 
e316  8e  e3 4e     CALL @>e34e          -- 
e319  26  80 0a     BTJO %>128,A,@>e323  -- 
e31c  5d  2a        CMP %42,B            -- 
e31e  e2  03        JEQ @>e321           -- 
e320  8c  e8 28     BR @>e828            -- 
e323  73  60 2e     AND %96,R46          -- 
e326  5d  2a        CMP %42,B            -- 
e328  e2  03        JEQ @>e32b           -- 
e32a  74  80 36     OR %128,R54          -- 
e32d  ac  e3 75     BR @>e375(B)         -- 
e330  73  ef 31     AND %239,R49         -- 
e333  8e  e3 4e     CALL @>e34e          -- 
e336  23  1f        AND %31,A            -- 
e338  2d  0e        CMP %14,A            -- 
e33a  e3  36        JHS @>e370           -- 
e33c  2c  03        MOV %3,A             -- 
e33e  74  10 31     OR %16,R49           -- 
e341  8e  e3 4e     CALL @>e34e          -- 
e344  26  80 28     BTJO %>128,A,@>e36c  -- 
e347  5d  1b        CMP %27,B            -- 
e349  e2  08        JEQ @>e351           -- 
e34b  8c  e8 28     BR @>e828            -- 
e34e  f3            TRAP-11              -- 
e34f  8a  60 00     LDA @>6000           -- 
e352  0a            RETS                 -- return from subroutine
e353  12  2e        MOV R46,A            -- 
e355  23  60        AND %96,A            -- 
e357  e2  f2        JEQ @>e449           -- 
e359  b8            PUSH A               -- 
e35a  73  df 2f     AND %223,R47         -- 
e35d  f5            TRAP-13              -- 
e35e  b9            POP A                -- 
e35f  2d  60        CMP %96,A            -- 
e361  e2  06        JEQ @>e367           -- 
e363  26  20 06     BTJO %>32,A,@>e369   -- 
e366  8c  f3 ab     BR @>f3ab            -- 
e369  72  08 0b     MOV %8,R11           -- 
e36c  8c  f4 0a     BR @>f40a            -- 
e36f  ac  e3 a2     BR @>e3a2(B)         -- 
e372  8c  e8 21     BR @>e821            -- 
e375  8c  e3 c9     BR @>e3c9            -- 
e378  8c  e3 ec     BR @>e3ec            -- 
e37b  8c  e4 0e     BR @>e40e            -- 
e37e  8c  e4 30     BR @>e430            -- 
e381  8c  e4 52     BR @>e452            -- 
e384  8c  e4 74     BR @>e474            -- 
e387  8c  e4 79     BR @>e479            -- 
e38a  8c  e5 7b     BR @>e57b            -- 
e38d  8c  e4 9b     BR @>e49b            -- 
e390  8c  e5 a1     BR @>e5a1            -- 
e393  8c  e4 bd     BR @>e4bd            -- 
e396  8c  e4 c3     BR @>e4c3            -- 
e399  8c  e4 e5     BR @>e4e5            -- 
e39c  8c  e5 07     BR @>e507            -- 
e39f  8c  e5 0c     BR @>e50c            -- 
e3a2  8c  e5 d0     BR @>e5d0            -- 
e3a5  8c  e5 cc     BR @>e5cc            -- 
e3a8  8c  e5 c8     BR @>e5c8            -- 
e3ab  8c  e5 c4     BR @>e5c4            -- 
e3ae  8c  e5 e0     BR @>e5e0            -- 
e3b1  8c  e5 dc     BR @>e5dc            -- 
e3b4  8c  e5 d8     BR @>e5d8            -- 
e3b7  8c  e5 d4     BR @>e5d4            -- 
e3ba  8c  e6 06     BR @>e606            -- 
e3bd  8c  e6 5d     BR @>e65d            -- 
e3c0  8c  e5 c0     BR @>e5c0            -- 
e3c3  8c  e5 e4     BR @>e5e4            -- 
e3c6  8c  e7 dd     BR @>e7dd            -- 
e3c9  12  2c        MOV R44,A            -- 
e3cb  23  03        AND %3,A             -- 
e3cd  2d  00        CMP %0,A             -- 
e3cf  e2  08        JEQ @>e3d7           -- 
e3d1  2d  01        CMP %1,A             -- 
e3d3  e2  0d        JEQ @>e3e0           -- 
e3d5  2d  02        CMP %2,A             -- 
e3d7  e2  0e        JEQ @>e3e5           -- 
e3d9  74  01 2c     OR %1,R44            -- 
e3dc  73  fd 2c     AND %253,R44         -- 
e3df  8c  e5 48     BR @>e548            -- 
e3e2  75  03 2c     XOR %3,R44           -- 
e3e5  e0  f8        JMP @>e4dd           -- 
e3e7  74  01 2c     OR %1,R44            -- 
e3ea  e0  f3        JMP @>e4dd           -- 
e3ec  12  2c        MOV R44,A            -- 
e3ee  23  0c        AND %12,A            -- 
e3f0  2d  00        CMP %0,A             -- 
e3f2  e2  08        JEQ @>e3fa           -- 
e3f4  2d  04        CMP %4,A             -- 
e3f6  e2  0c        JEQ @>e402           -- 
e3f8  2d  08        CMP %8,A             -- 
e3fa  e2  0d        JEQ @>e407           -- 
e3fc  74  0c 2c     OR %12,R44           -- 
e3ff  73  f7 2c     AND %247,R44         -- 
e402  e0  db        JMP @>e4dd           -- 
e404  75  0c 2c     XOR %12,R44          -- 
e407  e0  d6        JMP @>e4dd           -- 
e409  74  04 2c     OR %4,R44            -- 
e40c  e0  d1        JMP @>e4dd           -- 
e40e  12  2c        MOV R44,A            -- 
e410  23  30        AND %48,A            -- 
e412  2d  00        CMP %0,A             -- 
e414  e2  0b        JEQ @>e41f           -- 
e416  26  10 0d     BTJO %>16,A,@>e423   -- 
e419  26  20 0f     BTJO %>32,A,@>e428   -- 
e41c  73  cf 2c     AND %207,R44         -- 
e41f  e0  be        JMP @>e4dd           -- 
e421  74  10 2c     OR %16,R44           -- 
e424  e0  b9        JMP @>e4dd           -- 
e426  75  30 2c     XOR %48,R44          -- 
e429  e0  b4        JMP @>e4dd           -- 
e42b  74  10 2c     OR %16,R44           -- 
e42e  e0  af        JMP @>e4dd           -- 
e430  12  2c        MOV R44,A            -- 
e432  23  c0        AND %192,A           -- 
e434  2d  00        CMP %0,A             -- 
e436  e2  08        JEQ @>e43e           -- 
e438  2d  40        CMP %64,A            -- 
e43a  e2  0c        JEQ @>e446           -- 
e43c  2d  80        CMP %128,A           -- 
e43e  e2  0d        JEQ @>e44b           -- 
e440  74  40 2c     OR %64,R44           -- 
e443  73  7f 2c     AND %127,R44         -- 
e446  e0  97        JMP @>e4dd           -- 
e448  75  c0 2c     XOR %192,R44         -- 
e44b  e0  92        JMP @>e4dd           -- 
e44d  74  40 2c     OR %64,R44           -- 
e450  e0  8d        JMP @>e4dd           -- 
e452  12  2d        MOV R45,A            -- 
e454  23  03        AND %3,A             -- 
e456  2d  00        CMP %0,A             -- 
e458  e2  0b        JEQ @>e463           -- 
e45a  26  01 0d     BTJO %>1,A,@>e467    -- 
e45d  26  02 0f     BTJO %>2,A,@>e46c    -- 
e460  73  fc 2d     AND %252,R45         -- 
e463  e0  5b        JMP @>e4be           -- 
e465  74  01 2d     OR %1,R45            -- 
e468  e0  56        JMP @>e4be           -- 
e46a  75  03 2d     XOR %3,R45           -- 
e46d  e0  51        JMP @>e4be           -- 
e46f  74  01 2d     OR %1,R45            -- 
e472  e0  4c        JMP @>e4be           -- 
e474  75  04 2d     XOR %4,R45           -- 
e477  e0  47        JMP @>e4be           -- 
e479  12  2d        MOV R45,A            -- 
e47b  23  18        AND %24,A            -- 
e47d  2d  00        CMP %0,A             -- 
e47f  e2  0b        JEQ @>e48a           -- 
e481  26  08 0d     BTJO %>8,A,@>e48e    -- 
e484  26  10 0f     BTJO %>16,A,@>e493   -- 
e487  73  e7 2d     AND %231,R45         -- 
e48a  e0  34        JMP @>e4be           -- 
e48c  74  08 2d     OR %8,R45            -- 
e48f  e0  2f        JMP @>e4be           -- 
e491  75  18 2d     XOR %24,R45          -- 
e494  e0  2a        JMP @>e4be           -- 
e496  74  08 2d     OR %8,R45            -- 
e499  e0  25        JMP @>e4be           -- 
e49b  12  2d        MOV R45,A            -- 
e49d  23  60        AND %96,A            -- 
e49f  2d  00        CMP %0,A             -- 
e4a1  e2  0b        JEQ @>e4ac           -- 
e4a3  26  20 0d     BTJO %>32,A,@>e4b0   -- 
e4a6  26  40 0f     BTJO %>64,A,@>e4b5   -- 
e4a9  73  9f 2d     AND %159,R45         -- 
e4ac  e0  12        JMP @>e4be           -- 
e4ae  74  20 2d     OR %32,R45           -- 
e4b1  e0  0d        JMP @>e4be           -- 
e4b3  75  60 2d     XOR %96,R45          -- 
e4b6  e0  08        JMP @>e4be           -- 
e4b8  74  20 2d     OR %32,R45           -- 
e4bb  e0  03        JMP @>e4be           -- 
e4bd  75  80 2d     XOR %128,R45         -- 
e4c0  8c  e5 55     BR @>e555            -- 
e4c3  12  2e        MOV R46,A            -- 
e4c5  23  03        AND %3,A             -- 
e4c7  2d  00        CMP %0,A             -- 
e4c9  e2  0b        JEQ @>e4d4           -- 
e4cb  26  01 0d     BTJO %>1,A,@>e4d8    -- 
e4ce  26  02 0f     BTJO %>2,A,@>e4dd    -- 
e4d1  73  fc 2e     AND %252,R46         -- 
e4d4  e0  4c        JMP @>e520           -- 
e4d6  74  01 2e     OR %1,R46            -- 
e4d9  e0  47        JMP @>e520           -- 
e4db  75  03 2e     XOR %3,R46           -- 
e4de  e0  42        JMP @>e520           -- 
e4e0  74  01 2e     OR %1,R46            -- 
e4e3  e0  3d        JMP @>e520           -- 
e4e5  12  2e        MOV R46,A            -- 
e4e7  23  0c        AND %12,A            -- 
e4e9  2d  00        CMP %0,A             -- 
e4eb  e2  0b        JEQ @>e4f6           -- 
e4ed  26  04 0d     BTJO %>4,A,@>e4fa    -- 
e4f0  26  08 0f     BTJO %>8,A,@>e4ff    -- 
e4f3  73  f3 2e     AND %243,R46         -- 
e4f6  e0  2a        JMP @>e520           -- 
e4f8  74  04 2e     OR %4,R46            -- 
e4fb  e0  25        JMP @>e520           -- 
e4fd  75  0c 2e     XOR %12,R46          -- 
e500  e0  20        JMP @>e520           -- 
e502  74  04 2e     OR %4,R46            -- 
e505  e0  1b        JMP @>e520           -- 
e507  75  10 2e     XOR %16,R46          -- 
e50a  e0  16        JMP @>e520           -- 
e50c  12  2e        MOV R46,A            -- 
e50e  23  60        AND %96,A            -- 
e510  2d  00        CMP %0,A             -- 
e512  e2  2f        JEQ @>e541           -- 
e514  2d  20        CMP %32,A            -- 
e516  e2  0d        JEQ @>e523           -- 
e518  2d  40        CMP %64,A            -- 
e51a  e2  1f        JEQ @>e539           -- 
e51c  73  bf 2e     AND %191,R46         -- 
e51f  42  2e 41     MOV R46,R65          -- 
e522  8c  e5 63     BR @>e563            -- 
e525  75  60 2e     XOR %96,R46          -- 
e528  77  80 2e 03  BTJZ %>128,R46,@>e556 -- 
e52c  73  7f 2e     AND %127,R46         -- 
e52f  42  2e 41     MOV R46,R65          -- 
e532  77  80 06 03  BTJZ %>128,R6,@>e538 -- 
e536  74  20 3b     OR %32,R59           -- 
e539  e0  e7        JMP @>e620           -- 
e53b  74  20 2e     OR %32,R46           -- 
e53e  42  2e 41     MOV R46,R65          -- 
e541  e0  df        JMP @>e620           -- 
e543  74  20 2e     OR %32,R46           -- 
e546  e0  da        JMP @>e620           -- 
e548  12  2c        MOV R44,A            -- 
e54a  8b  a0 01     STA @>a001           -- 
e54d  8b  c0 30     STA @>c030           -- 
e550  8b  c0 44     STA @>c044           -- 
e553  e0  0b        JMP @>e55e           -- 
e555  12  2d        MOV R45,A            -- 
e557  8b  a0 02     STA @>a002           -- 
e55a  8b  c0 31     STA @>c031           -- 
e55d  8b  c0 45     STA @>c045           -- 
e560  8c  e8 21     BR @>e821            -- 
e563  12  2e        MOV R46,A            -- 
e565  8b  a0 03     STA @>a003           -- 
e568  b6            XCHB A               -- 
e569  8a  60 00     LDA @>6000           -- 
e56c  26  80 03     BTJO %>128,A,@>e56f  -- 
e56f  8c  e8 28     BR @>e828            -- 
e572  b6            XCHB A               -- 
e573  8b  c0 32     STA @>c032           -- 
e576  8b  c0 46     STA @>c046           -- 
e579  e0  e5        JMP @>e65e           -- 
e57b  12  2f        MOV R47,A            -- 
e57d  23  03        AND %3,A             -- 
e57f  2d  00        CMP %0,A             -- 
e581  e2  08        JEQ @>e589           -- 
e583  2d  01        CMP %1,A             -- 
e585  e2  10        JEQ @>e595           -- 
e587  2d  03        CMP %3,A             -- 
e589  e2  11        JEQ @>e59a           -- 
e58b  74  01 2f     OR %1,R47            -- 
e58e  f5            TRAP-13              -- 
e58f  8b  c0 33     STA @>c033           -- 
e592  8b  c0 47     STA @>c047           -- 
e595  e0  c9        JMP @>e65e           -- 
e597  74  03 2f     OR %3,R47            -- 
e59a  e0  f2        JMP @>e68c           -- 
e59c  73  fc 2f     AND %252,R47         -- 
e59f  e0  ed        JMP @>e68c           -- 
e5a1  12  2f        MOV R47,A            -- 
e5a3  23  0c        AND %12,A            -- 
e5a5  2d  00        CMP %0,A             -- 
e5a7  e2  08        JEQ @>e5af           -- 
e5a9  2d  04        CMP %4,A             -- 
e5ab  e2  09        JEQ @>e5b4           -- 
e5ad  2d  0c        CMP %12,A            -- 
e5af  e2  0a        JEQ @>e5b9           -- 
e5b1  74  04 2f     OR %4,R47            -- 
e5b4  e0  d8        JMP @>e68c           -- 
e5b6  74  0c 2f     OR %12,R47           -- 
e5b9  e0  d3        JMP @>e68c           -- 
e5bb  73  f3 2f     AND %243,R47         -- 
e5be  e0  ce        JMP @>e68c           -- 
e5c0  52  00        MOV %0,B             -- 
e5c2  e0  22        JMP @>e5e4           -- 
e5c4  52  01        MOV %1,B             -- 
e5c6  e0  1e        JMP @>e5e4           -- 
e5c8  52  02        MOV %2,B             -- 
e5ca  e0  1a        JMP @>e5e4           -- 
e5cc  52  03        MOV %3,B             -- 
e5ce  e0  16        JMP @>e5e4           -- 
e5d0  52  04        MOV %4,B             -- 
e5d2  e0  12        JMP @>e5e4           -- 
e5d4  52  05        MOV %5,B             -- 
e5d6  e0  0e        JMP @>e5e4           -- 
e5d8  52  06        MOV %6,B             -- 
e5da  e0  0a        JMP @>e5e4           -- 
e5dc  52  07        MOV %7,B             -- 
e5de  e0  06        JMP @>e5e4           -- 
e5e0  52  08        MOV %8,B             -- 
e5e2  e0  02        JMP @>e5e4           -- 
e5e4  52  09        MOV %9,B             -- 
e5e6  77  20 2f 14  BTJZ %>32,R47,@>e615 -- 
e5ea  d7  32        SWAP R50             -- 
e5ec  73  f0 32     AND %240,R50         -- 
e5ef  44  01 32     OR R1,R50            -- 
e5f2  12  32        MOV R50,A            -- 
e5f4  8b  70 00     STA @>7000           -- 
e5f7  74  20 2f     OR %32,R47           -- 
e5fa  f5            TRAP-13              -- 
e5fb  8c  e8 21     BR @>e821            -- 
e5fe  62  d0        MOV B,A              -- 
e600  32  73        MOV R115,B           -- 
e602  ef            TRAP-7               -- 
e603  2f  e0        DSB %224,A           -- 
e605  ec            TRAP-4               -- 
e606  74  10 42     OR %16,R66           -- 
e609  73  7f 06     AND %127,R6          -- 
e60c  12  06        MOV R6,A             -- 
e60e  8b  a0 00     STA @>a000           -- 
e611  74  04 42     OR %4,R66            -- 
e614  73  60 2e     AND %96,R46          -- 
e617  12  2e        MOV R46,A            -- 
e619  8e  e8 69     CALL @>e869          -- 
e61c  8b  a0 03     STA @>a003           -- 
e61f  8b  c0 32     STA @>c032           -- 
e622  8b  c0 46     STA @>c046           -- 
e625  74  10 2f     OR %16,R47           -- 
e628  73  10 2f     AND %16,R47          -- 
e62b  f5            TRAP-13              -- 
e62c  8b  c0 33     STA @>c033           -- 
e62f  8b  c0 47     STA @>c047           -- 
e632  52  14        MOV %20,B            -- 
e634  72  ff 34     MOV %255,R52         -- 
e637  72  ff 35     MOV %255,R53         -- 
e63a  aa  c0 1f     LDA @>c01f(B)        -- 
e63d  ab  c0 33     STA @>c033(B)        -- 
e640  ca  f2        DJNZ B,@>e732        -- 
e642  b5            CLR A                -- 
e643  d0  2d        MOV A,R45            -- 
e645  8b  a0 02     STA @>a002           -- 
e648  8b  c0 31     STA @>c031           -- 
e64b  8b  c0 45     STA @>c045           -- 
e64e  22  45        MOV %69,A            -- 
e650  d0  2c        MOV A,R44            -- 
e652  8b  a0 01     STA @>a001           -- 
e655  8b  c0 30     STA @>c030           -- 
e658  8b  c0 44     STA @>c044           -- 
e65b  e0  69        JMP @>e6c4           -- 
e65d  76  08 5a 14  BTJO %>8,R90,@>e6b7  -- 
e661  7d  98 32     CMP %152,R50         -- 
e664  e6  31        JNE @>e695           -- 
e666  8a  c7 ff     LDA @>c7ff           -- 
e669  b3            INC A                -- 
e66a  d0  32        MOV A,R50            -- 
e66c  8b  70 00     STA @>7000           -- 
e66f  74  08 5a     OR %8,R90            -- 
e672  8c  e8 21     BR @>e821            -- 
e675  7d  01 32     CMP %1,R50           -- 
e678  e7  1a        JL @>e692            -- 
e67a  7d  05 32     CMP %5,R50           -- 
e67d  e3  15        JHS @>e692           -- 
e67f  32  32        MOV R50,B            -- 
e681  c2            DEC B                -- 
e682  62  8b        MOV B,A              -- 
e684  c7            SWAP B               -- 
e685  ff            TRAP-23              -- 
e686  aa  e0 55     LDA @>e055(B)        -- 
e689  82  03        MOVP A,P3            -- 
e68b  8e  e7 86     CALL @>e786          -- 
e68e  73  f7 5a     AND %247,R90         -- 
e691  8c  e7 46     BR @>e746            -- 
e694  8c  e8 21     BR @>e821            -- 
e697  76  01 5a 1e  BTJO %>1,R90,@>e6f1  -- 
e69b  7d  97 32     CMP %151,R50         -- 
e69e  e6  54        JNE @>e6f2           -- 
e6a0  74  01 5a     OR %1,R90            -- 
e6a3  73  7f 58     AND %127,R88         -- 
e6a6  12  5b        MOV R91,A            -- 
e6a8  d0  32        MOV A,R50            -- 
e6aa  8b  70 00     STA @>7000           -- 
e6ad  d5  04        CLR R4               -- 
e6af  ec            TRAP-4               -- 
e6b0  74  40 42     OR %64,R66           -- 
e6b3  74  02 5a     OR %2,R90            -- 
e6b6  8c  e7 fc     BR @>e7fc            -- 
e6b9  73  3f 04     AND %63,R4           -- 
e6bc  e6  08        JNE @>e6c4           -- 
e6be  42  32 5b     MOV R50,R91          -- 
e6c1  7d  02 5b     CMP %2,R91           -- 
e6c4  e7  03        JL @>e6c7            -- 
e6c6  8c  e8 21     BR @>e821            -- 
e6c9  7d  01 5b     CMP %1,R91           -- 
e6cc  e6  10        JNE @>e6dc           -- 
e6ce  7d  ff 59     CMP %255,R89         -- 
e6d1  e2  1c        JEQ @>e6ed           -- 
e6d3  73  fe 5a     AND %254,R90         -- 
e6d6  74  80 58     OR %128,R88          -- 
e6d9  72  01 5b     MOV %1,R91           -- 
e6dc  e0  08        JMP @>e6e4           -- 
e6de  d5  5b        CLR R91              -- 
e6e0  73  fe 5a     AND %254,R90         -- 
e6e3  73  7f 58     AND %127,R88         -- 
e6e6  8e  e7 86     CALL @>e786          -- 
e6e9  d5  04        CLR R4               -- 
e6eb  ec            TRAP-4               -- 
e6ec  8c  e7 46     BR @>e746            -- 
e6ef  72  1f 59     MOV %31,R89          -- 
e6f2  e0  df        JMP @>e7d1           -- 
e6f4  7d  96 32     CMP %150,R50         -- 
e6f7  e3  4a        JHS @>e741           -- 
e6f9  7d  95 32     CMP %149,R50         -- 
e6fc  e6  16        JNE @>e712           -- 
e6fe  75  08 42     XOR %8,R66           -- 
e701  77  10 42 05  BTJZ %>16,R66,@>e743 -- 
e705  74  10 2f     OR %16,R47           -- 
e708  e0  03        JMP @>e70b           -- 
e70a  8e  e7 86     CALL @>e786          -- 
e70d  73  1f 2f     AND %31,R47          -- 
e710  f5            TRAP-13              -- 
e711  8c  e8 21     BR @>e821            -- 
e714  77  20 2f 2b  BTJZ %>32,R47,@>e743 -- 
e718  76  40 2e 07  BTJO %>64,R46,@>e746 -- 
e71c  12  32        MOV R50,A            -- 
e71e  8b  c0 91     STA @>c091           -- 
e721  e0  37        JMP @>e758           -- 
e723  76  03 36 fc  BTJO %>3,R54,@>e759  -- 
e727  76  01 58 20  BTJO %>1,R88,@>e77f  -- 
e72b  74  08 3b     OR %8,R59            -- 
e72e  22  b6        MOV %182,A           -- 
e730  8b  d0 00     STA @>d000           -- 
e733  76  08 3b fc  BTJO %>8,R59,@>e76e  -- 
e737  76  20 2e e1  BTJO %>32,R46,@>e765 -- 
e73b  77  10 42 07  BTJZ %>16,R66,@>e77d -- 
e73f  74  10 2f     OR %16,R47           -- 
e742  f5            TRAP-13              -- 
e743  8c  e8 21     BR @>e821            -- 
e746  8e  e7 86     CALL @>e786          -- 
e749  e0  c2        JMP @>e80b           -- 
e74b  22  b6        MOV %182,A           -- 
e74d  8b  d0 00     STA @>d000           -- 
e750  77  01 58 e3  BTJZ %>1,R88,@>e7a8  -- 
e754  76  01 58 f8  BTJO %>1,R88,@>e7ac  -- 
e758  e0  dd        JMP @>e835           -- 
e75a  73  ef 42     AND %239,R66         -- 
e75d  d5  34        CLR R52              -- 
e75f  d5  35        CLR R53              -- 
e761  73  fb 42     AND %251,R66         -- 
e764  76  10 2f 0f  BTJO %>16,R47,@>e793 -- 
e768  77  80 2e 0b  BTJZ %>128,R46,@>e796 -- 
e76c  8e  e7 cf     CALL @>e7cf          -- 
e76f  8e  e7 c0     CALL @>e7c0          -- 
e772  8e  e7 8f     CALL @>e78f          -- 
e775  e0  09        JMP @>e77e           -- 
e777  8e  e7 cf     CALL @>e7cf          -- 
e77a  8e  e7 c0     CALL @>e7c0          -- 
e77d  8e  e7 b3     CALL @>e7b3          -- 
e780  8e  e7 9b     CALL @>e79b          -- 
e783  8c  e8 21     BR @>e821            -- 
e786  8a  c0 91     LDA @>c091           -- 
e789  d0  32        MOV A,R50            -- 
e78b  8b  70 00     STA @>7000           -- 
e78e  0a            RETS                 -- return from subroutine
e78f  52  14        MOV %20,B            -- 
e791  aa  c0 33     LDA @>c033(B)        -- 
e794  9b  2b        STA *R43             -- 
e796  db  2b        DECD R43             -- 
e798  ca  f7        DJNZ B,@>e88f        -- 
e79a  0a            RETS                 -- return from subroutine
e79b  73  1f 2f     AND %31,R47          -- 
e79e  f5            TRAP-13              -- 
e79f  73  7f 2e     AND %127,R46         -- 
e7a2  12  2e        MOV R46,A            -- 
e7a4  8e  e8 69     CALL @>e869          -- 
e7a7  73  7f 06     AND %127,R6          -- 
e7aa  12  06        MOV R6,A             -- 
e7ac  8b  a0 00     STA @>a000           -- 
e7af  73  7f 36     AND %127,R54         -- 
e7b2  0a            RETS                 -- return from subroutine
e7b3  9a  2b        LDA *R43             -- 
e7b5  ab  c0 33     STA @>c033(B)        -- 
e7b8  db  2b        DECD R43             -- 
e7ba  ca  f7        DJNZ B,@>e8b1        -- 
e7bc  8e  e8 32     CALL @>e832          -- 
e7bf  0a            RETS                 -- return from subroutine
e7c0  5c  14        MOV %20,B            -- 
e7c2  88  c0 a6 2b  MOVD %>c0a6,R43      -- 
e7c6  48  01 2b     ADD R1,R43           -- 
e7c9  49  00 2a     ADC R0,R42           -- 
e7cc  52  14        MOV %20,B            -- 
e7ce  0a            RETS                 -- return from subroutine
e7cf  12  32        MOV R50,A            -- 
e7d1  23  f0        AND %240,A           -- 
e7d3  b7            SWAP A               -- 
e7d4  2c  0a        MOV %10,A            -- 
e7d6  12  32        MOV R50,A            -- 
e7d8  23  0f        AND %15,A            -- 
e7da  38  00        ADD R0,B             -- 
e7dc  0a            RETS                 -- return from subroutine
e7dd  77  08 42 28  BTJZ %>8,R66,@>e81f  -- 
e7e1  77  40 2e 26  BTJZ %>64,R46,@>e80f -- 
e7e5  77  20 2e 03  BTJZ %>32,R46,@>e813 -- 
e7e9  8e  e8 57     CALL @>e857          -- 
e7ec  76  03 36 fc  BTJO %>3,R54,@>e822  -- 
e7f0  74  40 42     OR %64,R66           -- 
e7f3  74  01 58     OR %1,R88            -- 
e7f6  72  14 56     MOV %20,R86          -- 
e7f9  75  80 53     XOR %128,R83         -- 
e7fc  22  b6        MOV %182,A           -- 
e7fe  8b  d0 00     STA @>d000           -- 
e801  76  40 42 fc  BTJO %>64,R66,@>e843 -- 
e805  76  40 42 fc  BTJO %>64,R66,@>e847 -- 
e809  e0  16        JMP @>e81f           -- 
e80b  74  20 2f     OR %32,R47           -- 
e80e  f5            TRAP-13              -- 
e80f  77  10 2f 06  BTJZ %>16,R47,@>e83e -- 
e813  77  80 2e 07  BTJZ %>128,R46,@>e841 -- 
e817  e0  08        JMP @>e81f           -- 
e819  8e  e8 57     CALL @>e857          -- 
e81c  e0  03        JMP @>e81f           -- 
e81e  8e  e8 72     CALL @>e872          -- 
e821  c9            POP B                -- 
e822  b9            POP A                -- 
e823  a4  15 00     ORP %21,P0           -- 
e826  05            EINT                 -- Set global interrupt enable bit
e827  0b            RETI                 -- return from interrupt
e828  c9            POP B                -- 
e829  b9            POP A                -- 
e82a  8a  60 00     LDA @>6000           -- 
e82d  a4  01 00     ORP %1,P0            -- 
e830  05            EINT                 -- Set global interrupt enable bit
e831  0b            RETI                 -- return from interrupt
e832  8a  c0 44     LDA @>c044           -- 
e835  8b  a0 01     STA @>a001           -- 
e838  d0  2c        MOV A,R44            -- 
e83a  8a  c0 45     LDA @>c045           -- 
e83d  8b  a0 02     STA @>a002           -- 
e840  d0  2d        MOV A,R45            -- 
e842  8a  c0 46     LDA @>c046           -- 
e845  23  1f        AND %31,A            -- 
e847  8e  e8 69     CALL @>e869          -- 
e84a  d0  2e        MOV A,R46            -- 
e84c  8a  c0 47     LDA @>c047           -- 
e84f  23  0f        AND %15,A            -- 
e851  8b  a0 04     STA @>a004           -- 
e854  d0  2f        MOV A,R47            -- 
e856  0a            RETS                 -- return from subroutine
e857  76  80 2e 09  BTJO %>128,R46,@>e885 -- 
e85b  74  80 2e     OR %128,R46          -- 
e85e  12  2e        MOV R46,A            -- 
e860  8e  e8 69     CALL @>e869          -- 
e863  0a            RETS                 -- return from subroutine
e864  73  7f 2e     AND %127,R46         -- 
e867  e0  f5        JMP @>e95c           -- 
e869  73  60 41     AND %96,R65          -- 
e86c  14  41        OR R65,A             -- 
e86e  8b  a0 03     STA @>a003           -- 
e871  0a            RETS                 -- return from subroutine
e872  22  00        MOV %0,A             -- 
e874  8b  70 00     STA @>7000           -- 
e877  d0  32        MOV A,R50            -- 
e879  74  80 2e     OR %128,R46          -- 
e87c  12  2e        MOV R46,A            -- 
e87e  8e  e8 69     CALL @>e869          -- 
e881  73  ef 2f     AND %239,R47         -- 
e884  f5            TRAP-13              -- 
e885  0a            RETS                 -- return from subroutine
e886  06            DINT                 -- Clear global interrupt enable bit
e887  d0  09        MOV A,R9             -- 
e889  f2            TRAP-10              -- 
e88a  22  ff        MOV %255,A           -- 
e88c  15  4a        XOR R74,A            -- 
e88e  f1            TRAP-9               -- 
e88f  15  4a        XOR R74,A            -- 
e891  8b  a0 06     STA @>a006           -- 
e894  05            EINT                 -- Set global interrupt enable bit
e895  0a            RETS                 -- return from subroutine
e896  00            NOP                  -- 
e897  b0            TSTA                 -- 
e898  be            RL A                 -- 
e899  be            RL A                 -- 
e89a  e0  06        JMP @>e8a0           -- 
e89c  00            NOP                  -- 
e89d  b0            TSTA                 -- 
e89e  be            RL A                 -- 
e89f  be            RL A                 -- 
e8a0  d0  09        MOV A,R9             -- 
e8a2  f2            TRAP-10              -- 
e8a3  22  ff        MOV %255,A           -- 
e8a5  25  04        XOR %4,A             -- 
e8a7  f1            TRAP-9               -- 
e8a8  25  04        XOR %4,A             -- 
e8aa  8b  a0 06     STA @>a006           -- 
e8ad  00            NOP                  -- 
e8ae  0a            RETS                 -- return from subroutine
e8af  00            NOP                  -- 
e8b0  d0  09        MOV A,R9             -- 
e8b2  f2            TRAP-10              -- 
e8b3  22  ff        MOV %255,A           -- 
e8b5  25  08        XOR %8,A             -- 
e8b7  f1            TRAP-9               -- 
e8b8  25  08        XOR %8,A             -- 
e8ba  8b  a0 06     STA @>a006           -- 
e8bd  00            NOP                  -- 
e8be  0a            RETS                 -- return from subroutine
INT2_HANDLER:
e8bf  b8            PUSH A               -- 
e8c0  c8            PUSH B               -- 
e8c1  12  31        MOV R49,A            -- 
e8c3  27  20 03     BTJZ %>32,A,@>e8c6   -- 
e8c6  8c  f5 46     BR @>f546            -- 
e8c9  a3  98 00     ANDP %152,P0         -- 
e8cc  05            EINT                 -- Set global interrupt enable bit
e8cd  8a  00 06     LDA @>0006           -- 
e8d0  23  bf        AND %191,A           -- 
e8d2  8b  a0 00     STA @>a000           -- 
e8d5  a2  0f 06     MOVP %15,P6          -- 
e8d8  91  04        MOVP P4,B            -- 
e8da  d1  29        MOV B,R41            -- 
e8dc  a2  0e 06     MOVP %14,P6          -- 
e8df  91  04        MOVP P4,B            -- 
e8e1  d1  28        MOV B,R40            -- 
e8e3  a2  0d 06     MOVP %13,P6          -- 
e8e6  91  04        MOVP P4,B            -- 
e8e8  d1  27        MOV B,R39            -- 
e8ea  a2  0c 06     MOVP %12,P6          -- 
e8ed  91  04        MOVP P4,B            -- 
e8ef  d1  26        MOV B,R38            -- 
e8f1  a2  0b 06     MOVP %11,P6          -- 
e8f4  91  04        MOVP P4,B            -- 
e8f6  d1  25        MOV B,R37            -- 
e8f8  a2  0a 06     MOVP %10,P6          -- 
e8fb  91  04        MOVP P4,B            -- 
e8fd  d1  24        MOV B,R36            -- 
e8ff  a2  09 06     MOVP %9,P6           -- 
e902  91  04        MOVP P4,B            -- 
e904  d1  23        MOV B,R35            -- 
e906  a2  08 06     MOVP %8,P6           -- 
e909  91  04        MOVP P4,B            -- 
e90b  d1  22        MOV B,R34            -- 
e90d  a2  07 06     MOVP %7,P6           -- 
e910  91  04        MOVP P4,B            -- 
e912  d1  21        MOV B,R33            -- 
e914  a2  06 06     MOVP %6,P6           -- 
e917  91  04        MOVP P4,B            -- 
e919  d1  20        MOV B,R32            -- 
e91b  a2  05 06     MOVP %5,P6           -- 
e91e  91  04        MOVP P4,B            -- 
e920  d1  1f        MOV B,R31            -- 
e922  a2  04 06     MOVP %4,P6           -- 
e925  91  04        MOVP P4,B            -- 
e927  d1  1e        MOV B,R30            -- 
e929  a2  03 06     MOVP %3,P6           -- 
e92c  91  04        MOVP P4,B            -- 
e92e  d1  1d        MOV B,R29            -- 
e930  a2  02 06     MOVP %2,P6           -- 
e933  91  04        MOVP P4,B            -- 
e935  d1  1c        MOV B,R28            -- 
e937  a2  01 06     MOVP %1,P6           -- 
e93a  91  04        MOVP P4,B            -- 
e93c  53  f8        AND %248,B           -- 
e93e  d1  1b        MOV B,R27            -- 
e940  a2  00 06     MOVP %0,P6           -- 
e943  91  04        MOVP P4,B            -- 
e945  d1  1a        MOV B,R26            -- 
e947  7d  0c 3e     CMP %12,R62          -- 
e94a  e2  06        JEQ @>e950           -- 
e94c  da  07 03     DJNZ R7,@>e94f       -- 
e94f  8e  ef 15     CALL @>ef15          -- 
e952  72  01 5e     MOV %1,R94           -- 
e955  c5                                 -- unknown instruction
e956  d5  5d        CLR R93              -- 
e958  4d  1b 11     CMP R27,R17          -- 
e95b  e6  0b        JNE @>e966           -- 
e95d  42  1b 33     MOV R27,R51          -- 
e960  45  19 33     XOR R25,R51          -- 
e963  7d  ff 33     CMP %255,R51         -- 
e966  e2  45        JEQ @>e9ab           -- 
e968  72  08 5e     MOV %8,R94           -- 
e96b  42  1b 33     MOV R27,R51          -- 
e96e  45  11 33     XOR R17,R51          -- 
e971  47  5e 33 1e  BTJZ R94,R51,@>e9a4  -- 
e975  46  5e 11 0b  BTJO R94,R17,@>e986  -- 
e979  aa  c0 54     LDA @>c054(B)        -- 
e97c  b2            DEC A                -- 
e97d  e7  29        JL @>e9a6            -- 
e97f  ab  c0 54     STA @>c054(B)        -- 
e982  e0  24        JMP @>e9a6           -- 
e984  46  5e 19 08  BTJO R94,R25,@>e99d  -- 
e988  44  5e 19     OR R94,R25           -- 
e98b  d1  5d        MOV B,R93            -- 
e98d  f9            TRAP-17              -- 
e98e  32  5d        MOV R93,B            -- 
e990  f7            TRAP-15              -- 
e991  e0  15        JMP @>e9a6           -- 
e993  47  5e 11 11  BTJZ R94,R17,@>e9a4  -- 
e997  47  5e 19 0d  BTJZ R94,R25,@>e9b0  -- 
e99b  46  5e 1a da  BTJO R94,R26,@>e9b5  -- 
e99f  d4  5e        INV R94              -- 
e9a1  43  5e 19     AND R94,R25          -- 
e9a4  d4  5e        INV R94              -- 
e9a6  62  fb        MOV B,A              -- 
e9a8  c3            INC B                -- 
e9a9  de  5e        RL R94               -- 
e9ab  e7  be        JL @>ea69            -- 
e9ad  4d  1d 10     CMP R29,R16          -- 
e9b0  e6  0b        JNE @>e9bb           -- 
e9b2  42  1d 33     MOV R29,R51          -- 
e9b5  45  18 33     XOR R24,R51          -- 
e9b8  7d  ff 33     CMP %255,R51         -- 
e9bb  e2  44        JEQ @>e9ff           -- 
e9bd  52  05        MOV %5,B             -- 
e9bf  42  1d 33     MOV R29,R51          -- 
e9c2  45  10 33     XOR R16,R51          -- 
e9c5  47  5e 33 1e  BTJZ R94,R51,@>e9f8  -- 
e9c9  46  5e 10 0b  BTJO R94,R16,@>e9d9  -- 
e9cd  aa  c0 54     LDA @>c054(B)        -- 
e9d0  b2            DEC A                -- 
e9d1  e7  29        JL @>e9fa            -- 
e9d3  ab  c0 54     STA @>c054(B)        -- 
e9d6  e0  24        JMP @>e9fa           -- 
e9d8  46  5e 18 08  BTJO R94,R24,@>e9f0  -- 
e9dc  44  5e 18     OR R94,R24           -- 
e9df  d1  5d        MOV B,R93            -- 
e9e1  f9            TRAP-17              -- 
e9e2  32  5d        MOV R93,B            -- 
e9e4  f7            TRAP-15              -- 
e9e5  e0  15        JMP @>e9fa           -- 
e9e7  47  5e 10 11  BTJZ R94,R16,@>e9f7  -- 
e9eb  47  5e 18 0d  BTJZ R94,R24,@>ea03  -- 
e9ef  46  5e 1c da  BTJO R94,R28,@>ea0b  -- 
e9f3  d4  5e        INV R94              -- 
e9f5  43  5e 18     AND R94,R24          -- 
e9f8  d4  5e        INV R94              -- 
e9fa  62  fb        MOV B,A              -- 
e9fc  c3            INC B                -- 
e9fd  de  5e        RL R94               -- 
e9ff  e7  be        JL @>eabd            -- 
ea01  4d  1f 0f     CMP R31,R15          -- 
ea04  e6  0b        JNE @>ea0f           -- 
ea06  42  1f 33     MOV R31,R51          -- 
ea09  45  17 33     XOR R23,R51          -- 
ea0c  7d  ff 33     CMP %255,R51         -- 
ea0f  e2  44        JEQ @>ea53           -- 
ea11  52  0d        MOV %13,B            -- 
ea13  42  1f 33     MOV R31,R51          -- 
ea16  45  0f 33     XOR R15,R51          -- 
ea19  47  5e 33 1e  BTJZ R94,R51,@>ea4c  -- 
ea1d  46  5e 0f 0b  BTJO R94,R15,@>ea2c  -- 
ea21  aa  c0 54     LDA @>c054(B)        -- 
ea24  b2            DEC A                -- 
ea25  e7  29        JL @>ea4e            -- 
ea27  ab  c0 54     STA @>c054(B)        -- 
ea2a  e0  24        JMP @>ea4e           -- 
ea2c  46  5e 17 08  BTJO R94,R23,@>ea43  -- 
ea30  44  5e 17     OR R94,R23           -- 
ea33  d1  5d        MOV B,R93            -- 
ea35  f9            TRAP-17              -- 
ea36  32  5d        MOV R93,B            -- 
ea38  f7            TRAP-15              -- 
ea39  e0  15        JMP @>ea4e           -- 
ea3b  47  5e 0f 11  BTJZ R94,R15,@>ea4a  -- 
ea3f  47  5e 17 0d  BTJZ R94,R23,@>ea56  -- 
ea43  46  5e 1e da  BTJO R94,R30,@>ea61  -- 
ea47  d4  5e        INV R94              -- 
ea49  43  5e 17     AND R94,R23          -- 
ea4c  d4  5e        INV R94              -- 
ea4e  62  fb        MOV B,A              -- 
ea50  c3            INC B                -- 
ea51  de  5e        RL R94               -- 
ea53  e7  be        JL @>eb11            -- 
ea55  4d  21 0e     CMP R33,R14          -- 
ea58  e6  0b        JNE @>ea63           -- 
ea5a  42  21 33     MOV R33,R51          -- 
ea5d  45  16 33     XOR R22,R51          -- 
ea60  7d  ff 33     CMP %255,R51         -- 
ea63  e2  44        JEQ @>eaa7           -- 
ea65  52  15        MOV %21,B            -- 
ea67  42  21 33     MOV R33,R51          -- 
ea6a  45  0e 33     XOR R14,R51          -- 
ea6d  47  5e 33 1e  BTJZ R94,R51,@>eaa0  -- 
ea71  46  5e 0e 0b  BTJO R94,R14,@>ea7f  -- 
ea75  aa  c0 54     LDA @>c054(B)        -- 
ea78  b2            DEC A                -- 
ea79  e7  29        JL @>eaa2            -- 
ea7b  ab  c0 54     STA @>c054(B)        -- 
ea7e  e0  24        JMP @>eaa2           -- 
ea80  46  5e 16 08  BTJO R94,R22,@>ea96  -- 
ea84  44  5e 16     OR R94,R22           -- 
ea87  d1  5d        MOV B,R93            -- 
ea89  f9            TRAP-17              -- 
ea8a  32  5d        MOV R93,B            -- 
ea8c  f7            TRAP-15              -- 
ea8d  e0  15        JMP @>eaa2           -- 
ea8f  47  5e 0e 11  BTJZ R94,R14,@>ea9d  -- 
ea93  47  5e 16 0d  BTJZ R94,R22,@>eaa9  -- 
ea97  46  5e 20 da  BTJO R94,R32,@>eab7  -- 
ea9b  d4  5e        INV R94              -- 
ea9d  43  5e 16     AND R94,R22          -- 
eaa0  d4  5e        INV R94              -- 
eaa2  62  fb        MOV B,A              -- 
eaa4  c3            INC B                -- 
eaa5  de  5e        RL R94               -- 
eaa7  e7  be        JL @>eb65            -- 
eaa9  4d  23 0d     CMP R35,R13          -- 
eaac  e6  0b        JNE @>eab7           -- 
eaae  42  23 33     MOV R35,R51          -- 
eab1  45  15 33     XOR R21,R51          -- 
eab4  7d  ff 33     CMP %255,R51         -- 
eab7  e2  44        JEQ @>eafb           -- 
eab9  52  1d        MOV %29,B            -- 
eabb  42  23 33     MOV R35,R51          -- 
eabe  45  0d 33     XOR R13,R51          -- 
eac1  47  5e 33 1e  BTJZ R94,R51,@>eaf4  -- 
eac5  46  5e 0d 0b  BTJO R94,R13,@>ead2  -- 
eac9  aa  c0 54     LDA @>c054(B)        -- 
eacc  b2            DEC A                -- 
eacd  e7  29        JL @>eaf6            -- 
eacf  ab  c0 54     STA @>c054(B)        -- 
ead2  e0  24        JMP @>eaf6           -- 
ead4  46  5e 15 08  BTJO R94,R21,@>eae9  -- 
ead8  44  5e 15     OR R94,R21           -- 
eadb  d1  5d        MOV B,R93            -- 
eadd  f9            TRAP-17              -- 
eade  32  5d        MOV R93,B            -- 
eae0  f7            TRAP-15              -- 
eae1  e0  15        JMP @>eaf6           -- 
eae3  47  5e 0d 11  BTJZ R94,R13,@>eaf0  -- 
eae7  47  5e 15 0d  BTJZ R94,R21,@>eafc  -- 
eaeb  46  5e 22 da  BTJO R94,R34,@>eb0d  -- 
eaef  d4  5e        INV R94              -- 
eaf1  43  5e 15     AND R94,R21          -- 
eaf4  d4  5e        INV R94              -- 
eaf6  62  fb        MOV B,A              -- 
eaf8  c3            INC B                -- 
eaf9  de  5e        RL R94               -- 
eafb  e7  be        JL @>ebb9            -- 
eafd  4d  25 0c     CMP R37,R12          -- 
eb00  e6  0b        JNE @>eb0b           -- 
eb02  42  25 33     MOV R37,R51          -- 
eb05  45  14 33     XOR R20,R51          -- 
eb08  7d  ff 33     CMP %255,R51         -- 
eb0b  e2  44        JEQ @>eb4f           -- 
eb0d  52  25        MOV %37,B            -- 
eb0f  42  25 33     MOV R37,R51          -- 
eb12  45  0c 33     XOR R12,R51          -- 
eb15  47  5e 33 1e  BTJZ R94,R51,@>eb48  -- 
eb19  46  5e 0c 0b  BTJO R94,R12,@>eb25  -- 
eb1d  aa  c0 54     LDA @>c054(B)        -- 
eb20  b2            DEC A                -- 
eb21  e7  29        JL @>eb4a            -- 
eb23  ab  c0 54     STA @>c054(B)        -- 
eb26  e0  24        JMP @>eb4a           -- 
eb28  46  5e 14 08  BTJO R94,R20,@>eb3c  -- 
eb2c  44  5e 14     OR R94,R20           -- 
eb2f  d1  5d        MOV B,R93            -- 
eb31  f9            TRAP-17              -- 
eb32  32  5d        MOV R93,B            -- 
eb34  f7            TRAP-15              -- 
eb35  e0  15        JMP @>eb4a           -- 
eb37  47  5e 0c 11  BTJZ R94,R12,@>eb43  -- 
eb3b  47  5e 14 0d  BTJZ R94,R20,@>eb4f  -- 
eb3f  46  5e 24 da  BTJO R94,R36,@>eb63  -- 
eb43  d4  5e        INV R94              -- 
eb45  43  5e 14     AND R94,R20          -- 
eb48  d4  5e        INV R94              -- 
eb4a  62  fb        MOV B,A              -- 
eb4c  c3            INC B                -- 
eb4d  de  5e        RL R94               -- 
eb4f  e7  be        JL @>ec0d            -- 
eb51  4d  27 0b     CMP R39,R11          -- 
eb54  e6  0b        JNE @>eb5f           -- 
eb56  42  27 33     MOV R39,R51          -- 
eb59  45  13 33     XOR R19,R51          -- 
eb5c  7d  ff 33     CMP %255,R51         -- 
eb5f  e2  44        JEQ @>eba3           -- 
eb61  52  2d        MOV %45,B            -- 
eb63  42  27 33     MOV R39,R51          -- 
eb66  45  0b 33     XOR R11,R51          -- 
eb69  47  5e 33 1e  BTJZ R94,R51,@>eb9c  -- 
eb6d  46  5e 0b 0b  BTJO R94,R11,@>eb78  -- 
eb71  aa  c0 54     LDA @>c054(B)        -- 
eb74  b2            DEC A                -- 
eb75  e7  29        JL @>eb9e            -- 
eb77  ab  c0 54     STA @>c054(B)        -- 
eb7a  e0  24        JMP @>eb9e           -- 
eb7c  46  5e 13 08  BTJO R94,R19,@>eb8f  -- 
eb80  44  5e 13     OR R94,R19           -- 
eb83  d1  5d        MOV B,R93            -- 
eb85  f9            TRAP-17              -- 
eb86  32  5d        MOV R93,B            -- 
eb88  f7            TRAP-15              -- 
eb89  e0  15        JMP @>eb9e           -- 
eb8b  47  5e 0b 11  BTJZ R94,R11,@>eb96  -- 
eb8f  47  5e 13 0d  BTJZ R94,R19,@>eba2  -- 
eb93  46  5e 26 da  BTJO R94,R38,@>ebb9  -- 
eb97  d4  5e        INV R94              -- 
eb99  43  5e 13     AND R94,R19          -- 
eb9c  d4  5e        INV R94              -- 
eb9e  62  fb        MOV B,A              -- 
eba0  c3            INC B                -- 
eba1  de  5e        RL R94               -- 
eba3  e7  be        JL @>ec61            -- 
eba5  4d  29 0a     CMP R41,R10          -- 
eba8  e6  0b        JNE @>ebb3           -- 
ebaa  42  29 33     MOV R41,R51          -- 
ebad  45  12 33     XOR R18,R51          -- 
ebb0  7d  ff 33     CMP %255,R51         -- 
ebb3  e2  44        JEQ @>ebf7           -- 
ebb5  52  35        MOV %53,B            -- 
ebb7  42  29 33     MOV R41,R51          -- 
ebba  45  0a 33     XOR R10,R51          -- 
ebbd  47  5e 33 1e  BTJZ R94,R51,@>ebf0  -- 
ebc1  46  5e 0a 0b  BTJO R94,R10,@>ebcb  -- 
ebc5  aa  c0 54     LDA @>c054(B)        -- 
ebc8  b2            DEC A                -- 
ebc9  e7  29        JL @>ebf2            -- 
ebcb  ab  c0 54     STA @>c054(B)        -- 
ebce  e0  24        JMP @>ebf2           -- 
ebd0  46  5e 12 08  BTJO R94,R18,@>ebe2  -- 
ebd4  44  5e 12     OR R94,R18           -- 
ebd7  d1  5d        MOV B,R93            -- 
ebd9  f9            TRAP-17              -- 
ebda  32  5d        MOV R93,B            -- 
ebdc  f7            TRAP-15              -- 
ebdd  e0  15        JMP @>ebf2           -- 
ebdf  47  5e 0a 11  BTJZ R94,R10,@>ebe9  -- 
ebe3  47  5e 12 0d  BTJZ R94,R18,@>ebf5  -- 
ebe7  46  5e 28 da  BTJO R94,R40,@>ec0f  -- 
ebeb  d4  5e        INV R94              -- 
ebed  43  5e 12     AND R94,R18          -- 
ebf0  d4  5e        INV R94              -- 
ebf2  62  fb        MOV B,A              -- 
ebf4  c3            INC B                -- 
ebf5  de  5e        RL R94               -- 
ebf7  e7  be        JL @>ecb5            -- 
ebf9  db  46        DECD R70             -- 
ebfb  e3  06        JHS @>ec01           -- 
ebfd  74  02 42     OR %2,R66            -- 
ec00  8e  ec 75     CALL @>ec75          -- 
ec03  42  1b 11     MOV R27,R17          -- 
ec06  42  1d 10     MOV R29,R16          -- 
ec09  42  1f 0f     MOV R31,R15          -- 
ec0c  42  21 0e     MOV R33,R14          -- 
ec0f  42  23 0d     MOV R35,R13          -- 
ec12  42  25 0c     MOV R37,R12          -- 
ec15  42  27 0b     MOV R39,R11          -- 
ec18  42  29 0a     MOV R41,R10          -- 
ec1b  7d  00 40     CMP %0,R64           -- 
ec1e  e6  19        JNE @>ec37           -- 
ec20  7d  5f 03     CMP %95,R3           -- 
ec23  e6  35        JNE @>ec58           -- 
ec25  8a  00 06     LDA @>0006           -- 
ec28  24  40        OR %64,A             -- 
ec2a  8b  a0 00     STA @>a000           -- 
ec2d  06            DINT                 -- Clear global interrupt enable bit
ec2e  91  00        MOVP P0,B            -- 
ec30  55  02        XOR %2,B             -- 
ec32  54  05        OR %5,B              -- 
ec34  92  00        MOVP B,P0            -- 
ec36  c9            POP B                -- 
ec37  b9            POP A                -- 
ec38  0b            RETI                 -- return from interrupt
ec39  06            DINT                 -- Clear global interrupt enable bit
ec3a  d2  40        DEC R64              -- 
ec3c  9a  40        LDA *R64             -- 
ec3e  b6            XCHB A               -- 
ec3f  d2  40        DEC R64              -- 
ec41  9a  40        LDA *R64             -- 
ec43  05            EINT                 -- Set global interrupt enable bit
ec44  d0  5c        MOV A,R92            -- 
ec46  aa  e0 00     LDA @>e000(B)        -- 
ec49  24  02        OR %2,A              -- 
ec4b  d6  05        XCHB R5              -- 
ec4d  8e  ed 02     CALL @>ed02          -- 
ec50  7d  00 40     CMP %0,R64           -- 
ec53  e6  e4        JNE @>ed37           -- 
ec55  7d  5f 03     CMP %95,R3           -- 
ec58  e2  2a        JEQ @>ec82           -- 
ec5a  06            DINT                 -- Clear global interrupt enable bit
ec5b  d2  03        DEC R3               -- 
ec5d  9a  03        LDA *R3              -- 
ec5f  05            EINT                 -- Set global interrupt enable bit
ec60  b6            XCHB A               -- 
ec61  aa  e0 00     LDA @>e000(B)        -- 
ec64  d6  05        XCHB R5              -- 
ec66  fa            TRAP-18              -- 
ec67  7d  5f 03     CMP %95,R3           -- 
ec6a  e6  ee        JNE @>ed58           -- 
ec6c  77  02 36 14  BTJZ %>2,R54,@>eca2  -- 
ec70  22  b6        MOV %182,A           -- 
ec72  8b  d0 00     STA @>d000           -- 
ec75  12  2d        MOV R45,A            -- 
ec77  23  78        AND %120,A           -- 
ec79  e6  10        JNE @>ec89           -- 
ec7b  8e  e2 d3     CALL @>e2d3          -- 
ec7e  8c  ec cb     BR @>eccb            -- 
ec81  8c  ec e4     BR @>ece4            -- 
ec84  77  40 58 f9  BTJZ %>64,R88,@>ecdc -- 
ec88  73  bf 58     AND %191,R88         -- 
ec8b  22  00        MOV %0,A             -- 
ec8d  ef            TRAP-7               -- 
ec8e  12  4b        MOV R75,A            -- 
ec90  23  fd        AND %253,A           -- 
ec92  ef            TRAP-7               -- 
ec93  12  4c        MOV R76,A            -- 
ec95  23  fd        AND %253,A           -- 
ec97  ef            TRAP-7               -- 
ec98  12  4d        MOV R77,A            -- 
ec9a  23  fd        AND %253,A           -- 
ec9c  ef            TRAP-7               -- 
ec9d  12  4e        MOV R78,A            -- 
ec9f  23  fd        AND %253,A           -- 
eca1  ef            TRAP-7               -- 
eca2  12  4f        MOV R79,A            -- 
eca4  23  fd        AND %253,A           -- 
eca6  ef            TRAP-7               -- 
eca7  12  50        MOV R80,A            -- 
eca9  23  fd        AND %253,A           -- 
ecab  ef            TRAP-7               -- 
ecac  77  02 42 16  BTJZ %>2,R66,@>ecee  -- 
ecb0  24  02        OR %2,A              -- 
ecb2  8b  b0 00     STA @>b000           -- 
ecb5  23  fd        AND %253,A           -- 
ecb7  8b  b0 00     STA @>b000           -- 
ecba  24  02        OR %2,A              -- 
ecbc  8b  b0 00     STA @>b000           -- 
ecbf  b8            PUSH A               -- 
ecc0  b9            POP A                -- 
ecc1  23  fd        AND %253,A           -- 
ecc3  8b  b0 00     STA @>b000           -- 
ecc6  23  fc        AND %252,A           -- 
ecc8  8b  b0 00     STA @>b000           -- 
eccb  12  06        MOV R6,A             -- 
eccd  8b  a0 00     STA @>a000           -- 
ecd0  ec            TRAP-4               -- 
ecd1  8a  00 06     LDA @>0006           -- 
ecd4  24  40        OR %64,A             -- 
ecd6  8b  a0 00     STA @>a000           -- 
ecd9  12  09        MOV R9,A             -- 
ecdb  f2            TRAP-10              -- 
ecdc  77  02 42 04  BTJZ %>2,R66,@>ed1e  -- 
ece0  73  fd 42     AND %253,R66         -- 
ece3  0a            RETS                 -- return from subroutine
ece4  06            DINT                 -- Clear global interrupt enable bit
ece5  91  00        MOVP P0,B            -- 
ece7  55  02        XOR %2,B             -- 
ece9  54  05        OR %5,B              -- 
eceb  92  00        MOVP B,P0            -- 
eced  c9            POP B                -- 
ecee  b9            POP A                -- 
ecef  0b            RETI                 -- return from interrupt
INT5_HANDLER:
ecf0  77  01 5a 05  BTJZ %>1,R90,@>ed4a  -- 
ecf4  42  05 59     MOV R5,R89           -- 
ecf7  d3  59        INC R89              -- 
ecf9  77  80 58 05  BTJZ %>128,R88,@>ed51 -- 
ecfd  4d  59 05     CMP R89,R5           -- 
ed00  e7  3e        JL @>ed3e            -- 
ed02  74  40 58     OR %64,R88           -- 
ed05  d8  30        PUSH R48             -- 
ed07  d8  31        PUSH R49             -- 
ed09  7d  3f 08     CMP %63,R8           -- 
ed0c  e6  3a        JNE @>ed46           -- 
ed0e  43  04 08     AND R4,R8            -- 
ed11  7d  3f 08     CMP %63,R8           -- 
ed14  e6  32        JNE @>ed46           -- 
ed16  73  f8 31     AND %248,R49         -- 
ed19  74  04 31     OR %4,R49            -- 
ed1c  76  80 58 25  BTJO %>128,R88,@>ed74 -- 
ed20  b8            PUSH A               -- 
ed21  12  4e        MOV R78,A            -- 
ed23  26  02 1e     BTJO %>2,A,@>ed41    -- 
ed26  8a  c0 4b     LDA @>c04b           -- 
ed29  28  24        ADD %36,A            -- 
ed2b  06            DINT                 -- Clear global interrupt enable bit
ed2c  9b  38        STA *R56             -- 
ed2e  d3  38        INC R56              -- 
ed30  05            EINT                 -- Set global interrupt enable bit
ed31  74  01 36     OR %1,R54            -- 
ed34  22  b6        MOV %182,A           -- 
ed36  8b  d0 00     STA @>d000           -- 
ed39  01            IDLE                 -- Sleep until interrupt
ed3a  77  01 36 06  BTJZ %>1,R54,@>ed70  -- 
ed3e  e0  f9        JMP @>ee37           -- 
ed40  12  05        MOV R5,A             -- 
ed42  ee            TRAP-6               -- 
ed43  0a            RETS                 -- return from subroutine
ed44  b9            POP A                -- 
ed45  8c  ee 45     BR @>ee45            -- 
ed48  73  f8 31     AND %248,R49         -- 
ed4b  74  01 31     OR %1,R49            -- 
ed4e  77  01 08 22  BTJZ %>1,R8,@>ed56   -- 
ed52  d3  31        INC R49              -- 
ed54  77  02 08 20  BTJZ %>2,R8,@>ed5c   -- 
ed58  d3  31        INC R49              -- 
ed5a  77  04 08 1e  BTJZ %>4,R8,@>ed62   -- 
ed5e  d3  31        INC R49              -- 
ed60  77  08 08 1c  BTJZ %>8,R8,@>ed68   -- 
ed64  d3  31        INC R49              -- 
ed66  77  10 08 1a  BTJZ %>16,R8,@>ed6e  -- 
ed6a  d3  31        INC R49              -- 
ed6c  77  20 08 18  BTJZ %>32,R8,@>ed74  -- 
ed70  d3  31        INC R49              -- 
ed72  e0  14        JMP @>ed86           -- 
ed74  8c  ed 8b     BR @>ed8b            -- 
ed77  00            NOP                  -- 
ed78  8c  ed c9     BR @>edc9            -- 
ed7b  00            NOP                  -- 
ed7c  8c  ee 07     BR @>ee07            -- 
ed7f  00            NOP                  -- 
ed80  8c  ee 45     BR @>ee45            -- 
ed83  00            NOP                  -- 
ed84  8c  ee 83     BR @>ee83            -- 
ed87  00            NOP                  -- 
ed88  8c  ee c0     BR @>eec0            -- 
ed8b  d0  4b        MOV A,R75            -- 
ed8d  b6            XCHB A               -- 
ed8e  73  fe 04     AND %254,R4          -- 
ed91  ec            TRAP-4               -- 
ed92  74  01 04     OR %1,R4             -- 
ed95  74  01 08     OR %1,R8             -- 
ed98  b6            XCHB A               -- 
ed99  26  01 05     BTJO %>1,A,@>ed9e    -- 
ed9c  73  fe 06     AND %254,R6          -- 
ed9f  e0  03        JMP @>eda2           -- 
eda1  74  01 06     OR %1,R6             -- 
eda4  26  02 15     BTJO %>2,A,@>edb9    -- 
eda7  76  80 58 03  BTJO %>128,R88,@>edff -- 
edab  22  00        MOV %0,A             -- 
edad  ee            TRAP-6               -- 
edae  f3            TRAP-11              -- 
edaf  12  05        MOV R5,A             -- 
edb1  8b  c0 48     STA @>c048           -- 
edb4  ed            TRAP-5               -- 
edb5  8b  c0 4e     STA @>c04e           -- 
edb8  f0            TRAP-8               -- 
edb9  8c  ee fd     BR @>eefd            -- 
edbc  f3            TRAP-11              -- 
edbd  12  05        MOV R5,A             -- 
edbf  8b  c0 48     STA @>c048           -- 
edc2  8e  e8 96     CALL @>e896          -- 
edc5  12  5c        MOV R92,A            -- 
edc7  e0  ec        JMP @>eeb3           -- 
edc9  d0  4c        MOV A,R76            -- 
edcb  b6            XCHB A               -- 
edcc  73  fd 04     AND %253,R4          -- 
edcf  ec            TRAP-4               -- 
edd0  74  02 04     OR %2,R4             -- 
edd3  74  02 08     OR %2,R8             -- 
edd6  b6            XCHB A               -- 
edd7  26  01 05     BTJO %>1,A,@>eddc    -- 
edda  73  fd 06     AND %253,R6          -- 
eddd  e0  03        JMP @>ede0           -- 
eddf  74  02 06     OR %2,R6             -- 
ede2  26  02 15     BTJO %>2,A,@>edf7    -- 
ede5  76  80 58 03  BTJO %>128,R88,@>ee3d -- 
ede9  22  01        MOV %1,A             -- 
edeb  ee            TRAP-6               -- 
edec  f3            TRAP-11              -- 
eded  12  05        MOV R5,A             -- 
edef  8b  c0 49     STA @>c049           -- 
edf2  ed            TRAP-5               -- 
edf3  8b  c0 4f     STA @>c04f           -- 
edf6  f0            TRAP-8               -- 
edf7  8c  ee fd     BR @>eefd            -- 
edfa  f3            TRAP-11              -- 
edfb  12  05        MOV R5,A             -- 
edfd  8b  c0 49     STA @>c049           -- 
ee00  8e  e8 96     CALL @>e896          -- 
ee03  12  5c        MOV R92,A            -- 
ee05  e0  ec        JMP @>eef1           -- 
ee07  d0  4d        MOV A,R77            -- 
ee09  b6            XCHB A               -- 
ee0a  73  fb 04     AND %251,R4          -- 
ee0d  ec            TRAP-4               -- 
ee0e  74  04 04     OR %4,R4             -- 
ee11  74  04 08     OR %4,R8             -- 
ee14  b6            XCHB A               -- 
ee15  26  01 05     BTJO %>1,A,@>ee1a    -- 
ee18  73  fb 06     AND %251,R6          -- 
ee1b  e0  03        JMP @>ee1e           -- 
ee1d  74  04 06     OR %4,R6             -- 
ee20  26  02 15     BTJO %>2,A,@>ee35    -- 
ee23  76  80 58 03  BTJO %>128,R88,@>ee7b -- 
ee27  22  02        MOV %2,A             -- 
ee29  ee            TRAP-6               -- 
ee2a  f3            TRAP-11              -- 
ee2b  12  05        MOV R5,A             -- 
ee2d  8b  c0 4a     STA @>c04a           -- 
ee30  ed            TRAP-5               -- 
ee31  8b  c0 50     STA @>c050           -- 
ee34  f0            TRAP-8               -- 
ee35  8c  ee fd     BR @>eefd            -- 
ee38  f3            TRAP-11              -- 
ee39  12  05        MOV R5,A             -- 
ee3b  8b  c0 4a     STA @>c04a           -- 
ee3e  8e  e8 96     CALL @>e896          -- 
ee41  12  5c        MOV R92,A            -- 
ee43  e0  ec        JMP @>ef2f           -- 
ee45  d0  4e        MOV A,R78            -- 
ee47  b6            XCHB A               -- 
ee48  73  f7 04     AND %247,R4          -- 
ee4b  ec            TRAP-4               -- 
ee4c  74  08 04     OR %8,R4             -- 
ee4f  74  08 08     OR %8,R8             -- 
ee52  b6            XCHB A               -- 
ee53  26  01 05     BTJO %>1,A,@>ee58    -- 
ee56  73  f7 06     AND %247,R6          -- 
ee59  e0  03        JMP @>ee5c           -- 
ee5b  74  08 06     OR %8,R6             -- 
ee5e  26  02 15     BTJO %>2,A,@>ee73    -- 
ee61  76  80 58 03  BTJO %>128,R88,@>eeb9 -- 
ee65  22  03        MOV %3,A             -- 
ee67  ee            TRAP-6               -- 
ee68  f3            TRAP-11              -- 
ee69  12  05        MOV R5,A             -- 
ee6b  8b  c0 4b     STA @>c04b           -- 
ee6e  ed            TRAP-5               -- 
ee6f  8b  c0 51     STA @>c051           -- 
ee72  f0            TRAP-8               -- 
ee73  8c  ee fd     BR @>eefd            -- 
ee76  f3            TRAP-11              -- 
ee77  12  05        MOV R5,A             -- 
ee79  8b  c0 4b     STA @>c04b           -- 
ee7c  8e  e8 96     CALL @>e896          -- 
ee7f  12  5c        MOV R92,A            -- 
ee81  e0  ec        JMP @>ef6d           -- 
ee83  d0  4f        MOV A,R79            -- 
ee85  b6            XCHB A               -- 
ee86  73  ef 04     AND %239,R4          -- 
ee89  ec            TRAP-4               -- 
ee8a  74  10 04     OR %16,R4            -- 
ee8d  74  10 08     OR %16,R8            -- 
ee90  b6            XCHB A               -- 
ee91  26  01 05     BTJO %>1,A,@>ee96    -- 
ee94  73  ef 06     AND %239,R6          -- 
ee97  e0  03        JMP @>ee9a           -- 
ee99  74  10 06     OR %16,R6            -- 
ee9c  26  02 14     BTJO %>2,A,@>eeb0    -- 
ee9f  76  80 58 03  BTJO %>128,R88,@>eef7 -- 
eea3  22  04        MOV %4,A             -- 
eea5  ee            TRAP-6               -- 
eea6  f3            TRAP-11              -- 
eea7  12  05        MOV R5,A             -- 
eea9  8b  c0 4c     STA @>c04c           -- 
eeac  ed            TRAP-5               -- 
eead  8b  c0 52     STA @>c052           -- 
eeb0  f0            TRAP-8               -- 
eeb1  e0  4a        JMP @>eefb           -- 
eeb3  f3            TRAP-11              -- 
eeb4  12  05        MOV R5,A             -- 
eeb6  8b  c0 4c     STA @>c04c           -- 
eeb9  8e  e8 96     CALL @>e896          -- 
eebc  12  5c        MOV R92,A            -- 
eebe  e0  ed        JMP @>efab           -- 
eec0  d0  50        MOV A,R80            -- 
eec2  b6            XCHB A               -- 
eec3  73  df 04     AND %223,R4          -- 
eec6  ec            TRAP-4               -- 
eec7  74  20 04     OR %32,R4            -- 
eeca  74  20 08     OR %32,R8            -- 
eecd  b6            XCHB A               -- 
eece  26  01 05     BTJO %>1,A,@>eed3    -- 
eed1  73  df 06     AND %223,R6          -- 
eed4  e0  03        JMP @>eed7           -- 
eed6  74  20 06     OR %32,R6            -- 
eed9  26  02 14     BTJO %>2,A,@>eeed    -- 
eedc  76  80 58 03  BTJO %>128,R88,@>ef34 -- 
eee0  22  05        MOV %5,A             -- 
eee2  ee            TRAP-6               -- 
eee3  f3            TRAP-11              -- 
eee4  12  05        MOV R5,A             -- 
eee6  8b  c0 4d     STA @>c04d           -- 
eee9  ed            TRAP-5               -- 
eeea  8b  c0 53     STA @>c053           -- 
eeed  f0            TRAP-8               -- 
eeee  e0  0d        JMP @>eefb           -- 
eef0  f3            TRAP-11              -- 
eef1  12  05        MOV R5,A             -- 
eef3  8b  c0 4d     STA @>c04d           -- 
eef6  8e  e8 96     CALL @>e896          -- 
eef9  12  5c        MOV R92,A            -- 
eefb  e0  ed        JMP @>efe8           -- 
eefd  d9  31        POP R49              -- 
eeff  d9  30        POP R48              -- 
ef01  f3            TRAP-11              -- 
ef02  f4            TRAP-12              -- 
ef03  0a            RETS                 -- return from subroutine
ef04  06            DINT                 -- Clear global interrupt enable bit
ef05  9b  3a        STA *R58             -- 
ef07  d3  3a        INC R58              -- 
ef09  05            EINT                 -- Set global interrupt enable bit
ef0a  74  06 36     OR %6,R54            -- 
ef0d  0a            RETS                 -- return from subroutine
ef0e  00            NOP                  -- 
ef0f  22  13        MOV %19,A            -- 
ef11  ab  c0 54     STA @>c054(B)        -- 
ef14  0a            RETS                 -- return from subroutine
ef15  06            DINT                 -- Clear global interrupt enable bit
ef16  d2  3e        DEC R62              -- 
ef18  9a  3e        LDA *R62             -- 
ef1a  05            EINT                 -- Set global interrupt enable bit
ef1b  e0  0b        JMP @>ef26           -- 
ef1d  aa  e0 00     LDA @>e000(B)        -- 
ef20  77  80 58 04  BTJZ %>128,R88,@>ef78 -- 
ef24  3d  59        CMP R89,B            -- 
ef26  e7  57        JL @>ef7d            -- 
ef28  77  01 04 04  BTJZ %>1,R4,@>ef2c   -- 
ef2c  1d  4b        CMP R75,A            -- 
ef2e  e2  2c        JEQ @>ef5a           -- 
ef30  77  02 04 04  BTJZ %>2,R4,@>ef34   -- 
ef34  1d  4c        CMP R76,A            -- 
ef36  e2  29        JEQ @>ef5f           -- 
ef38  77  04 04 04  BTJZ %>4,R4,@>ef3c   -- 
ef3c  1d  4d        CMP R77,A            -- 
ef3e  e2  26        JEQ @>ef64           -- 
ef40  77  08 04 04  BTJZ %>8,R4,@>ef44   -- 
ef44  1d  4e        CMP R78,A            -- 
ef46  e2  23        JEQ @>ef69           -- 
ef48  77  10 04 04  BTJZ %>16,R4,@>ef4c  -- 
ef4c  1d  4f        CMP R79,A            -- 
ef4e  e2  20        JEQ @>ef6e           -- 
ef50  77  20 04 04  BTJZ %>32,R4,@>ef54  -- 
ef54  1d  50        CMP R80,A            -- 
ef56  e2  1d        JEQ @>ef73           -- 
ef58  26  02 3e     BTJO %>2,A,@>ef96    -- 
ef5b  0a            RETS                 -- return from subroutine
ef5c  73  fe 04     AND %254,R4          -- 
ef5f  e0  17        JMP @>ef76           -- 
ef61  73  fd 04     AND %253,R4          -- 
ef64  e0  12        JMP @>ef76           -- 
ef66  73  fb 04     AND %251,R4          -- 
ef69  e0  0d        JMP @>ef76           -- 
ef6b  73  f7 04     AND %247,R4          -- 
ef6e  e0  08        JMP @>ef76           -- 
ef70  73  ef 04     AND %239,R4          -- 
ef73  e0  03        JMP @>ef76           -- 
ef75  73  df 04     AND %223,R4          -- 
ef78  26  02 1e     BTJO %>2,A,@>ef96    -- 
ef7b  76  80 58 22  BTJO %>128,R88,@>efd3 -- 
ef7f  b6            XCHB A               -- 
ef80  28  24        ADD %36,A            -- 
ef82  06            DINT                 -- Clear global interrupt enable bit
ef83  9b  38        STA *R56             -- 
ef85  d3  38        INC R56              -- 
ef87  2a  24        SUB %36,A            -- 
ef89  b6            XCHB A               -- 
ef8a  74  01 36     OR %1,R54            -- 
ef8d  05            EINT                 -- Set global interrupt enable bit
ef8e  22  b6        MOV %182,A           -- 
ef90  8b  d0 00     STA @>d000           -- 
ef93  76  80 58 0b  BTJO %>128,R88,@>efeb -- 
ef97  e0  08        JMP @>ef9f           -- 
ef99  7d  0c 3e     CMP %12,R62          -- 
ef9c  e6  05        JNE @>efa1           -- 
ef9e  72  06 07     MOV %6,R7            -- 
efa1  ec            TRAP-4               -- 
efa2  0a            RETS                 -- return from subroutine
efa3  8c  ef 15     BR @>ef15            -- 
INT4_HANDLER:
efa6  7d  65 03     CMP %101,R3          -- 
efa9  e2  04        JEQ @>efad           -- 
efab  9b  03        STA *R3              -- 
efad  d3  03        INC R3               -- 
efaf  0a            RETS                 -- return from subroutine
efb0  12  2f        MOV R47,A            -- 
efb2  8b  a0 04     STA @>a004           -- 
efb5  0a            RETS                 -- return from subroutine
efb6  12  30        MOV R48,A            -- 
efb8  8b  a0 06     STA @>a006           -- 
efbb  0a            RETS                 -- return from subroutine
efbc  12  31        MOV R49,A            -- 
efbe  8b  a0 07     STA @>a007           -- 
efc1  0a            RETS                 -- return from subroutine
efc2  8b  90 00     STA @>9000           -- 
efc5  8b  90 00     STA @>9000           -- 
efc8  0a            RETS                 -- return from subroutine
efc9  8b  a0 06     STA @>a006           -- 
efcc  8b  a0 06     STA @>a006           -- 
efcf  8b  a0 06     STA @>a006           -- 
efd2  0a            RETS                 -- return from subroutine
efd3  8b  90 00     STA @>9000           -- 
efd6  12  31        MOV R49,A            -- 
efd8  b2            DEC A                -- 
efd9  8b  a0 07     STA @>a007           -- 
efdc  8e  e8 b3     CALL @>e8b3          -- 
efdf  0a            RETS                 -- return from subroutine
efe0  24  01        OR %1,A              -- 
efe2  8b  b0 00     STA @>b000           -- 
efe5  24  02        OR %2,A              -- 
efe7  8b  b0 00     STA @>b000           -- 
efea  23  fd        AND %253,A           -- 
efec  8b  b0 00     STA @>b000           -- 
efef  0a            RETS                 -- return from subroutine
eff0  8e  e8 96     CALL @>e896          -- 
eff3  32  05        MOV R5,B             -- 
eff5  aa  c0 54     LDA @>c054(B)        -- 
eff8  c8            PUSH B               -- 
eff9  c0  aa        MOV A,B              -- 
effb  e0  3d        JMP @>f038           -- 
effd  c9            POP B                -- 
effe  0a            RETS                 -- return from subroutine
efff  12  04        MOV R4,A             -- 
f001  8b  a0 05     STA @>a005           -- 
f004  0a            RETS                 -- return from subroutine
INT3_HANDLER:
f005  b8            PUSH A               -- 
f006  c8            PUSH B               -- 
f007  8a  d0 02     LDA @>d002           -- 
f00a  26  30 24     BTJO %>48,A,@>f02e   -- 
f00d  26  01 66     BTJO %>1,A,@>f073    -- 
f010  76  40 42 1a  BTJO %>64,R66,@>f052 -- 
f014  76  01 58 13  BTJO %>1,R88,@>f06c  -- 
f018  77  08 3b 40  BTJZ %>8,R59,@>f053  -- 
f01c  76  10 3b 22  BTJO %>16,R59,@>f057 -- 
f020  22  c0        MOV %192,A           -- 
f022  8b  d0 01     STA @>d001           -- 
f025  74  10 3b     OR %16,R59           -- 
f028  8c  f0 fc     BR @>f0fc            -- 
f02b  8c  f1 12     BR @>f112            -- 
f02e  8c  f1 83     BR @>f183            -- 
f031  8a  d0 03     LDA @>d003           -- 
f034  d5  3b        CLR R59              -- 
f036  73  80 36     AND %128,R54         -- 
f039  73  fe 42     AND %254,R66         -- 
f03c  d5  04        CLR R4               -- 
f03e  ec            TRAP-4               -- 
f03f  8c  f0 fc     BR @>f0fc            -- 
f042  8e  e7 cf     CALL @>e7cf          -- 
f045  62  8b        MOV B,A              -- 
f047  d0  01        MOV A,R1             -- 
f049  76  20 3b 04  BTJO %>32,R59,@>f084 -- 
f04d  73  df 2f     AND %223,R47         -- 
f050  f5            TRAP-13              -- 
f051  73  c7 3b     AND %199,R59         -- 
f054  22  96        MOV %150,A           -- 
f056  8b  d0 00     STA @>d000           -- 
f059  8c  f0 fc     BR @>f0fc            -- 
f05c  76  10 36 75  BTJO %>16,R54,@>f092 -- 
f060  76  04 36 40  BTJO %>4,R54,@>f096  -- 
f064  76  20 36 11  BTJO %>32,R54,@>f09a -- 
f068  73  f7 36     AND %247,R54         -- 
f06b  22  80        MOV %128,A           -- 
f06d  8b  d0 01     STA @>d001           -- 
f070  74  20 36     OR %32,R54           -- 
f073  8c  f0 fc     BR @>f0fc            -- 
f076  8c  f1 cb     BR @>f1cb            -- 
f079  76  40 36 0c  BTJO %>64,R54,@>f0af -- 
f07d  d2  38        DEC R56              -- 
f07f  9a  38        LDA *R56             -- 
f081  8b  d0 01     STA @>d001           -- 
f084  74  40 36     OR %64,R54           -- 
f087  e0  73        JMP @>f0fa           -- 
f089  22  40        MOV %64,A            -- 
f08b  8b  d0 01     STA @>d001           -- 
f08e  73  9f 36     AND %159,R54         -- 
f091  7d  1c 38     CMP %28,R56          -- 
f094  e6  66        JNE @>f0fa           -- 
f096  73  fe 36     AND %254,R54         -- 
f099  76  02 36 5f  BTJO %>2,R54,@>f0cf  -- 
f09d  22  96        MOV %150,A           -- 
f09f  8b  d0 00     STA @>d000           -- 
f0a2  e0  58        JMP @>f0fa           -- 
f0a4  76  08 36 0d  BTJO %>8,R54,@>f0da  -- 
f0a8  73  df 36     AND %223,R54         -- 
f0ab  22  90        MOV %144,A           -- 
f0ad  8b  d0 01     STA @>d001           -- 
f0b0  74  08 36     OR %8,R54            -- 
f0b3  e0  47        JMP @>f0fa           -- 
f0b5  d2  3a        DEC R58              -- 
f0b7  9a  3a        LDA *R58             -- 
f0b9  76  80 58 12  BTJO %>128,R88,@>f111 -- 
f0bd  c0  aa        MOV A,B              -- 
f0bf  c0  48        MOV A,B              -- 
f0c1  28  24        ADD %36,A            -- 
f0c3  58  06        ADD %6,B             -- 
f0c5  d1  44        MOV B,R68            -- 
f0c7  74  10 36     OR %16,R54           -- 
f0ca  8b  d0 01     STA @>d001           -- 
f0cd  e0  2d        JMP @>f0fa           -- 
f0cf  d0  44        MOV A,R68            -- 
f0d1  28  24        ADD %36,A            -- 
f0d3  e0  f2        JMP @>f1c5           -- 
f0d5  76  80 58 2e  BTJO %>128,R88,@>f12d -- 
f0d9  32  44        MOV R68,B            -- 
f0db  aa  c0 48     LDA @>c048(B)        -- 
f0de  bd            RRC A                -- 
f0df  2d  40        CMP %64,A            -- 
f0e1  e6  02        JNE @>f0e3           -- 
f0e3  22  41        MOV %65,A            -- 
f0e5  73  ef 36     AND %239,R54         -- 
f0e8  8b  d0 01     STA @>d001           -- 
f0eb  7d  17 3a     CMP %23,R58          -- 
f0ee  e6  0c        JNE @>f0fa           -- 
f0f0  73  f9 36     AND %249,R54         -- 
f0f3  76  01 36 05  BTJO %>1,R54,@>f129  -- 
f0f7  22  96        MOV %150,A           -- 
f0f9  8b  d0 00     STA @>d000           -- 
f0fc  91  00        MOVP P0,B            -- 
f0fe  55  0a        XOR %10,B            -- 
f100  54  20        OR %32,B             -- 
f102  92  00        MOVP B,P0            -- 
f104  c9            POP B                -- 
f105  b9            POP A                -- 
f106  0b            RETI                 -- return from interrupt
f107  32  44        MOV R68,B            -- 
f109  aa  c0 54     LDA @>c054(B)        -- 
f10c  b6            XCHB A               -- 
f10d  aa  e0 3d     LDA @>e03d(B)        -- 
f110  e0  cc        JMP @>f1dc           -- 
f112  76  02 58 0a  BTJO %>2,R88,@>f16a  -- 
f116  22  f0        MOV %240,A           -- 
f118  8b  d0 01     STA @>d001           -- 
f11b  74  02 58     OR %2,R88            -- 
f11e  e0  1a        JMP @>f138           -- 
f120  76  04 58 0a  BTJO %>4,R88,@>f178  -- 
f124  22  21        MOV %33,A            -- 
f126  8b  d0 01     STA @>d001           -- 
f129  74  04 58     OR %4,R88            -- 
f12c  e0  0c        JMP @>f138           -- 
f12e  76  20 58 0b  BTJO %>32,R88,@>f186 -- 
f132  22  01        MOV %1,A             -- 
f134  8b  d0 01     STA @>d001           -- 
f137  74  20 58     OR %32,R88           -- 
f13a  8c  f0 fc     BR @>f0fc            -- 
f13d  76  08 58 0c  BTJO %>8,R88,@>f195  -- 
f141  8e  e7 cf     CALL @>e7cf          -- 
f144  62  8b        MOV B,A              -- 
f146  d0  01        MOV A,R1             -- 
f148  74  08 58     OR %8,R88            -- 
f14b  e0  ed        JMP @>f238           -- 
f14d  76  10 58 21  BTJO %>16,R88,@>f1a5 -- 
f151  32  56        MOV R86,B            -- 
f153  aa  c0 33     LDA @>c033(B)        -- 
f156  d0  57        MOV A,R87            -- 
f158  74  10 58     OR %16,R88           -- 
f15b  c2            DEC B                -- 
f15c  e3  1c        JHS @>f178           -- 
f15e  22  f7        MOV %247,A           -- 
f160  8b  d0 01     STA @>d001           -- 
f163  73  c0 58     AND %192,R88         -- 
f166  75  80 53     XOR %128,R83         -- 
f169  d5  56        CLR R86              -- 
f16b  22  96        MOV %150,A           -- 
f16d  8b  d0 00     STA @>d000           -- 
f170  e0  d9        JMP @>f249           -- 
f172  73  ef 58     AND %239,R88         -- 
f175  12  57        MOV R87,A            -- 
f177  b7            SWAP A               -- 
f178  e0  02        JMP @>f17a           -- 
f17a  d1  56        MOV B,R86            -- 
f17c  23  0f        AND %15,A            -- 
f17e  8b  d0 01     STA @>d001           -- 
f181  e0  c8        JMP @>f249           -- 
f183  76  80 42 0b  BTJO %>128,R66,@>f1c5 -- 
f187  22  b0        MOV %176,A           -- 
f189  8b  d0 01     STA @>d001           -- 
f18c  74  80 42     OR %128,R66          -- 
f18f  8c  f0 fc     BR @>f0fc            -- 
f192  76  40 53 12  BTJO %>64,R83,@>f1e5 -- 
f196  77  02 5a 04  BTJZ %>2,R90,@>f1f0  -- 
f19a  22  7b        MOV %123,A           -- 
f19c  e0  02        JMP @>f19e           -- 
f19e  22  57        MOV %87,A            -- 
f1a0  8b  d0 01     STA @>d001           -- 
f1a3  74  40 53     OR %64,R83           -- 
f1a6  e0  e7        JMP @>f28d           -- 
f1a8  76  02 5a 1c  BTJO %>2,R90,@>f202  -- 
f1ac  77  80 53 18  BTJZ %>128,R83,@>f1ff -- 
f1b0  22  7f        MOV %127,A           -- 
f1b2  8b  d0 01     STA @>d001           -- 
f1b5  73  3f 42     AND %63,R66          -- 
f1b8  73  bf 53     AND %191,R83         -- 
f1bb  73  fd 5a     AND %253,R90         -- 
f1be  73  f7 36     AND %247,R54         -- 
f1c1  22  96        MOV %150,A           -- 
f1c3  8b  d0 00     STA @>d000           -- 
f1c6  e0  c7        JMP @>f28d           -- 
f1c8  b5            CLR A                -- 
f1c9  e0  e7        JMP @>f2b0           -- 
f1cb  8a  d0 03     LDA @>d003           -- 
f1ce  27  80 5d     BTJZ %>128,A,@>f22b  -- 
f1d1  2d  f1        CMP %241,A           -- 
f1d3  e3  19        JHS @>f1ec           -- 
f1d5  23  f0        AND %240,A           -- 
f1d7  2d  80        CMP %128,A           -- 
f1d9  e2  39        JEQ @>f212           -- 
f1db  2d  90        CMP %144,A           -- 
f1dd  e2  3d        JEQ @>f21a           -- 
f1df  73  f8 3b     AND %248,R59         -- 
f1e2  2d  b0        CMP %176,A           -- 
f1e4  e2  43        JEQ @>f227           -- 
f1e6  2d  c0        CMP %192,A           -- 
f1e8  e2  3a        JEQ @>f222           -- 
f1ea  2d  f0        CMP %240,A           -- 
f1ec  e2  1a        JEQ @>f206           -- 
f1ee  2d  f7        CMP %247,A           -- 
f1f0  e2  07        JEQ @>f1f7           -- 
f1f2  2d  ff        CMP %255,A           -- 
f1f4  e2  1b        JEQ @>f20f           -- 
f1f6  8c  f0 fc     BR @>f0fc            -- 
f1f9  73  e0 53     AND %224,R83         -- 
f1fc  d5  54        CLR R84              -- 
f1fe  73  7f 2e     AND %127,R46         -- 
f201  12  2e        MOV R46,A            -- 
f203  8e  e8 69     CALL @>e869          -- 
f206  e0  ee        JMP @>f2f4           -- 
f208  77  80 2e ea  BTJZ %>128,R46,@>f236 -- 
f20c  74  03 53     OR %3,R83            -- 
f20f  e0  e5        JMP @>f2f4           -- 
f211  8c  f5 59     BR @>START           -- 
f214  73  f8 3b     AND %248,R59         -- 
f217  74  01 3b     OR %1,R59            -- 
f21a  e0  da        JMP @>f2f4           -- 
f21c  73  f8 3b     AND %248,R59         -- 
f21f  74  02 3b     OR %2,R59            -- 
f222  e0  d2        JMP @>f2f4           -- 
f224  74  40 3b     OR %64,R59           -- 
f227  e0  cd        JMP @>f2f4           -- 
f229  74  80 3b     OR %128,R59          -- 
f22c  e0  c8        JMP @>f2f4           -- 
f22e  76  02 3b 65  BTJO %>2,R59,@>f269  -- 
f232  76  01 3b 5f  BTJO %>1,R59,@>f26d  -- 
f236  76  80 3b 0a  BTJO %>128,R59,@>f271 -- 
f23a  76  40 3b 73  BTJO %>64,R59,@>f275 -- 
f23e  76  02 53 24  BTJO %>2,R83,@>f291  -- 
f242  e0  b2        JMP @>f2f4           -- 
f244  76  04 3b 21  BTJO %>4,R59,@>f27f  -- 
f248  76  20 42 27  BTJO %>32,R66,@>f28a -- 
f24c  2d  57        CMP %87,A            -- 
f24e  e2  09        JEQ @>f257           -- 
f250  2d  7b        CMP %123,A           -- 
f252  e7  1a        JL @>f26c            -- 
f254  74  04 3b     OR %4,R59            -- 
f257  e0  0b        JMP @>f262           -- 
f259  77  40 2e 11  BTJZ %>64,R46,@>f287 -- 
f25d  77  08 42 0d  BTJZ %>8,R66,@>f29f  -- 
f261  74  20 42     OR %32,R66           -- 
f264  e0  90        JMP @>f2f4           -- 
f266  8c  f3 12     BR @>f312            -- 
f269  d0  04        MOV A,R4             -- 
f26b  8b  a0 05     STA @>a005           -- 
f26e  73  7b 3b     AND %123,R59         -- 
f271  e0  f1        JMP @>f362           -- 
f273  2d  00        CMP %0,A             -- 
f275  e6  0d        JNE @>f282           -- 
f277  73  7f 2e     AND %127,R46         -- 
f27a  12  2e        MOV R46,A            -- 
f27c  8e  e8 69     CALL @>e869          -- 
f27f  73  df 42     AND %223,R66         -- 
f282  e0  ea        JMP @>f36c           -- 
f284  76  10 2f 05  BTJO %>16,R47,@>f2b3 -- 
f288  74  80 2e     OR %128,R46          -- 
f28b  e0  ed        JMP @>f378           -- 
f28d  8e  e8 72     CALL @>e872          -- 
f290  73  df 42     AND %223,R66         -- 
f293  e0  d9        JMP @>f36c           -- 
f295  e0  47        JMP @>f2dc           -- 
f297  76  04 3b 19  BTJO %>4,R59,@>f2d2  -- 
f29b  2d  24        CMP %36,A            -- 
f29d  e7  0d        JL @>f2aa            -- 
f29f  2d  61        CMP %97,A            -- 
f2a1  e3  09        JHS @>f2aa           -- 
f2a3  2a  24        SUB %36,A            -- 
f2a5  d0  3c        MOV A,R60            -- 
f2a7  74  04 3b     OR %4,R59            -- 
f2aa  e0  b8        JMP @>f362           -- 
f2ac  74  04 5a     OR %4,R90            -- 
f2af  e0  f6        JMP @>f3a5           -- 
f2b1  8c  f2 fb     BR @>f2fb            -- 
f2b4  76  04 5a 3b  BTJO %>4,R90,@>f30e  -- 
f2b8  2d  00        CMP %0,A             -- 
f2ba  e2  15        JEQ @>f2cf           -- 
f2bc  2d  40        CMP %64,A            -- 
f2be  e2  03        JEQ @>f2c1           -- 
f2c0  be            RL A                 -- 
f2c1  e0  02        JMP @>f2c3           -- 
f2c3  22  ff        MOV %255,A           -- 
f2c5  9b  40        STA *R64             -- 
f2c7  12  3c        MOV R60,A            -- 
f2c9  d3  40        INC R64              -- 
f2cb  9b  40        STA *R64             -- 
f2cd  d3  40        INC R64              -- 
f2cf  e0  22        JMP @>f2f1           -- 
f2d1  32  3c        MOV R60,B            -- 
f2d3  aa  e0 00     LDA @>e000(B)        -- 
f2d6  24  02        OR %2,A              -- 
f2d8  9b  3e        STA *R62             -- 
f2da  d3  3e        INC R62              -- 
f2dc  e0  15        JMP @>f2f1           -- 
f2de  76  04 3b 11  BTJO %>4,R59,@>f319  -- 
f2e2  2a  24        SUB %36,A            -- 
f2e4  c0  aa        MOV A,B              -- 
f2e6  e0  00        JMP @>f2e6           -- 
f2e8  24  02        OR %2,A              -- 
f2ea  9b  3e        STA *R62             -- 
f2ec  d3  3e        INC R62              -- 
f2ee  74  04 3b     OR %4,R59            -- 
f2f1  e0  1c        JMP @>f30d           -- 
f2f3  73  fb 3b     AND %251,R59         -- 
f2f6  73  fb 5a     AND %251,R90         -- 
f2f9  e0  14        JMP @>f30d           -- 
f2fb  77  40 2e 0d  BTJZ %>64,R46,@>f329 -- 
f2ff  2d  5f        CMP %95,A            -- 
f301  e3  09        JHS @>f30a           -- 
f303  d0  43        MOV A,R67            -- 
f305  74  01 42     OR %1,R66            -- 
f308  d5  34        CLR R52              -- 
f30a  d5  35        CLR R53              -- 
f30c  73  bf 3b     AND %191,R59         -- 
f30f  8c  f0 fc     BR @>f0fc            -- 
f312  76  08 53 1b  BTJO %>8,R83,@>f365  -- 
f316  76  04 53 0e  BTJO %>4,R83,@>f369  -- 
f31a  2d  21        CMP %33,A            -- 
f31c  e2  05        JEQ @>f321           -- 
f31e  73  f9 53     AND %249,R83         -- 
f321  e0  ec        JMP @>f40d           -- 
f323  74  04 53     OR %4,R83            -- 
f326  e0  e7        JMP @>f40d           -- 
f328  2d  01        CMP %1,A             -- 
f32a  e6  f2        JNE @>f41c           -- 
f32c  74  08 53     OR %8,R83            -- 
f32f  e0  de        JMP @>f40d           -- 
f331  77  10 53 0b  BTJZ %>16,R83,@>f384 -- 
f335  76  80 54 17  BTJO %>128,R84,@>f389 -- 
f339  d0  55        MOV A,R85            -- 
f33b  74  80 54     OR %128,R84          -- 
f33e  e0  cf        JMP @>f40d           -- 
f340  d0  43        MOV A,R67            -- 
f342  8e  f3 6b     CALL @>f36b          -- 
f345  8b  c0 91     STA @>c091           -- 
f348  74  10 53     OR %16,R83           -- 
f34b  74  14 54     OR %20,R84           -- 
f34e  e0  bf        JMP @>f40d           -- 
f350  b7            SWAP A               -- 
f351  14  55        OR R85,A             -- 
f353  73  7f 54     AND %127,R84         -- 
f356  32  54        MOV R84,B            -- 
f358  ab  c0 33     STA @>c033(B)        -- 
f35b  c2            DEC B                -- 
f35c  d1  54        MOV B,R84            -- 
f35e  5d  00        CMP %0,B             -- 
f360  e6  07        JNE @>f367           -- 
f362  74  20 53     OR %32,R83           -- 
f365  d5  34        CLR R52              -- 
f367  d5  35        CLR R53              -- 
f369  e0  a4        JMP @>f40d           -- 
f36b  c5                                 -- unknown instruction
f36c  12  43        MOV R67,A            -- 
f36e  c3            INC B                -- 
f36f  2a  0a        SUB %10,A            -- 
f371  e3  fb        JHS @>f46c           -- 
f373  c2            DEC B                -- 
f374  28  0a        ADD %10,A            -- 
f376  c7            SWAP B               -- 
f377  64  8b        OR A,B               -- 
f379  70                                 -- unknown instruction
f37a  00            NOP                  -- 
f37b  0a            RETS                 -- return from subroutine
f37c  a2  aa 00     MOVP %170,P0         -- 
f37f  d5  0b        CLR R11              -- 
f381  22  00        MOV %0,A             -- 
f383  8b  a0 01     STA @>a001           -- 
f386  8b  a0 02     STA @>a002           -- 
f389  22  20        MOV %32,A            -- 
f38b  8b  a0 03     STA @>a003           -- 
f38e  22  00        MOV %0,A             -- 
f390  a2  00 06     MOVP %0,P6           -- 
f393  a2  12 02     MOVP %18,P2          -- 
f396  a2  94 03     MOVP %148,P3         -- 
f399  a3  ab 00     ANDP %171,P0         -- 
f39c  b0            TSTA                 -- 
f39d  05            EINT                 -- Set global interrupt enable bit
f39e  8a  60 00     LDA @>6000           -- 
f3a1  27  80 fa     BTJZ %>128,A,@>f49b  -- 
f3a4  73  df 31     AND %223,R49         -- 
f3a7  f3            TRAP-11              -- 
f3a8  8c  f5 59     BR @>START           -- 
f3ab  a5  05 00     XORP %5,P0           -- 
f3ae  05            EINT                 -- Set global interrupt enable bit
f3af  d5  10        CLR R16              -- 
f3b1  52  03        MOV %3,B             -- 
f3b3  22  ff        MOV %255,A           -- 
f3b5  72  ff 0d     MOV %255,R13         -- 
f3b8  da  0d fd     DJNZ R13,@>f4b5      -- 
f3bb  ba  f8        DJNZ A,@>f4b3        -- 
f3bd  ca  f4        DJNZ B,@>f4b1        -- 
f3bf  a2  aa 00     MOVP %170,P0         -- 
f3c2  7d  00 10     CMP %0,R16           -- 
f3c5  e6  0e        JNE @>f3d3           -- 
f3c7  72  01 10     MOV %1,R16           -- 
f3ca  72  ff 0e     MOV %255,R14         -- 
f3cd  8e  f5 0b     CALL @>f50b          -- 
f3d0  a2  00 06     MOVP %0,P6           -- 
f3d3  e0  ed        JMP @>f4c0           -- 
f3d5  72  08 11     MOV %8,R17           -- 
f3d8  88  c7 fe 23  MOVD %>c7fe,R35      -- 
f3dc  88  07 6d 1f  MOVD %>076d,R31      -- 
f3e0  9a  23        LDA *R35             -- 
f3e2  db  23        DECD R35             -- 
f3e4  db  1f        DECD R31             -- 
f3e6  e7  0d        JL @>f3f3            -- 
f3e8  d0  0e        MOV A,R14            -- 
f3ea  8e  f5 0b     CALL @>f50b          -- 
f3ed  da  11 fa     DJNZ R17,@>f4e7      -- 
f3f0  72  08 11     MOV %8,R17           -- 
f3f3  e0  eb        JMP @>f4de           -- 
f3f5  72  00 2e     MOV %0,R46           -- 
f3f8  12  2e        MOV R46,A            -- 
f3fa  8b  a0 03     STA @>a003           -- 
f3fd  74  20 2f     OR %32,R47           -- 
f400  f5            TRAP-13              -- 
f401  a4  01 00     ORP %1,P0            -- 
f404  c9            POP B                -- 
f405  b9            POP A                -- 
f406  8a  60 00     LDA @>6000           -- 
f409  0b            RETI                 -- return from interrupt
f40a  06            DINT                 -- Clear global interrupt enable bit
f40b  d5  0e        CLR R14              -- 
f40d  72  08 0a     MOV %8,R10           -- 
f410  88  07 6c 1f  MOVD %>076c,R31      -- 
f414  88  c7 fe 23  MOVD %>c7fe,R35      -- 
f418  76  01 0b 6c  BTJO %>1,R11,@>f423  -- 
f41c  8a  60 00     LDA @>6000           -- 
f41f  27  80 03     BTJZ %>128,A,@>f422  -- 
f422  8c  f5 59     BR @>START           -- 
f425  91  04        MOVP P4,B            -- 
f427  57  80 f2     BTJZ %>128,B,@>f519  -- 
f42a  91  04        MOVP P4,B            -- 
f42c  8a  60 00     LDA @>6000           -- 
f42f  27  80 03     BTJZ %>128,A,@>f432  -- 
f432  8c  f5 59     BR @>START           -- 
f435  56  80 f2     BTJO %>128,B,@>f527  -- 
f438  a2  02 06     MOVP %2,P6           -- 
f43b  8e  f5 04     CALL @>f504          -- 
f43e  a2  00 06     MOVP %0,P6           -- 
f441  91  04        MOVP P4,B            -- 
f443  57  80 0a     BTJZ %>128,B,@>f44d  -- 
f446  d3  0e        INC R14              -- 
f448  7d  ff 0e     CMP %255,R14         -- 
f44b  e6  cf        JNE @>f51a           -- 
f44d  74  04 0b     OR %4,R11            -- 
f450  8a  60 00     LDA @>6000           -- 
f453  27  80 03     BTJZ %>128,A,@>f456  -- 
f456  8c  f5 59     BR @>START           -- 
f459  91  04        MOVP P4,B            -- 
f45b  77  04 0b 02  BTJZ %>4,R11,@>f466  -- 
f45f  55  80        XOR %128,B           -- 
f461  57  80 ec     BTJZ %>128,B,@>f54d  -- 
f464  a2  02 06     MOVP %2,P6           -- 
f467  8e  f5 04     CALL @>f504          -- 
f46a  a2  00 06     MOVP %0,P6           -- 
f46d  8a  60 00     LDA @>6000           -- 
f470  27  80 03     BTJZ %>128,A,@>f473  -- 
f473  8c  f5 59     BR @>START           -- 
f476  91  04        MOVP P4,B            -- 
f478  77  04 0b 02  BTJZ %>4,R11,@>f483  -- 
f47c  55  80        XOR %128,B           -- 
f47e  57  80 cf     BTJZ %>128,B,@>f54d  -- 
f481  22  ff        MOV %255,A           -- 
f483  74  01 0b     OR %1,R11            -- 
f486  e0  90        JMP @>f516           -- 
f488  76  02 0b 1b  BTJO %>2,R11,@>f493  -- 
f48c  b8            PUSH A               -- 
f48d  8a  60 00     LDA @>6000           -- 
f490  27  80 03     BTJZ %>128,A,@>f493  -- 
f493  8c  f5 59     BR @>START           -- 
f496  91  04        MOVP P4,B            -- 
f498  77  04 0b 02  BTJZ %>4,R11,@>f4a3  -- 
f49c  55  80        XOR %128,B           -- 
f49e  56  80 ec     BTJO %>128,B,@>f58a  -- 
f4a1  b9            POP A                -- 
f4a2  74  02 0b     OR %2,R11            -- 
f4a5  e0  e1        JMP @>f586           -- 
f4a7  73  fc 0b     AND %252,R11         -- 
f4aa  b8            PUSH A               -- 
f4ab  8a  60 00     LDA @>6000           -- 
f4ae  27  80 03     BTJZ %>128,A,@>f4b1  -- 
f4b1  8c  f5 59     BR @>START           -- 
f4b4  91  04        MOVP P4,B            -- 
f4b6  77  04 0b 02  BTJZ %>4,R11,@>f4c1  -- 
f4ba  55  80        XOR %128,B           -- 
f4bc  57  80 ec     BTJZ %>128,B,@>f5a8  -- 
f4bf  b9            POP A                -- 
f4c0  a2  02 06     MOVP %2,P6           -- 
f4c3  8e  f5 04     CALL @>f504          -- 
f4c6  a2  00 06     MOVP %0,P6           -- 
f4c9  91  04        MOVP P4,B            -- 
f4cb  77  04 0b 02  BTJZ %>4,R11,@>f4d6  -- 
f4cf  55  80        XOR %128,B           -- 
f4d1  63  bc        AND B,A              -- 
f4d3  da  0a b2     DJNZ R10,@>f585      -- 
f4d6  72  08 0a     MOV %8,R10           -- 
f4d9  be            RL A                 -- 
f4da  77  08 0b 0f  BTJZ %>8,R11,@>f4e5  -- 
f4de  9d  23        CMPA *R35            -- 
f4e0  e2  0d        JEQ @>f4ed           -- 
f4e2  74  20 2f     OR %32,R47           -- 
f4e5  f5            TRAP-13              -- 
f4e6  73  f7 0b     AND %247,R11         -- 
f4e9  05            EINT                 -- Set global interrupt enable bit
f4ea  8c  f4 01     BR @>f401            -- 
f4ed  9b  23        STA *R35             -- 
f4ef  8a  60 00     LDA @>6000           -- 
f4f2  27  80 03     BTJZ %>128,A,@>f4f5  -- 
f4f5  8c  f5 59     BR @>START           -- 
f4f8  22  ff        MOV %255,A           -- 
f4fa  db  23        DECD R35             -- 
f4fc  db  1f        DECD R31             -- 
f4fe  e3  88        JHS @>f586           -- 
f500  05            EINT                 -- Set global interrupt enable bit
f501  8c  f3 f5     BR @>f3f5            -- 
f504  72  76 1b     MOV %118,R27         -- 
f507  da  1b fd     DJNZ R27,@>f604      -- 
f50a  0a            RETS                 -- return from subroutine
f50b  8a  60 00     LDA @>6000           -- 
f50e  27  80 03     BTJZ %>128,A,@>f511  -- 
f511  8c  f5 59     BR @>START           -- 
f514  dd  0e        RRC R14              -- 
f516  e3  0a        JHS @>f520           -- 
f518  b8            PUSH A               -- 
f519  c8            PUSH B               -- 
f51a  a2  01 06     MOVP %1,P6           -- 
f51d  8e  f5 3a     CALL @>f53a          -- 
f520  e0  14        JMP @>f534           -- 
f522  a2  01 06     MOVP %1,P6           -- 
f525  72  b5 0c     MOV %181,R12         -- 
f528  da  0c fd     DJNZ R12,@>f625      -- 
f52b  a2  00 06     MOVP %0,P6           -- 
f52e  72  45 0f     MOV %69,R15          -- 
f531  da  0f fd     DJNZ R15,@>f62e      -- 
f534  e0  03        JMP @>f537           -- 
f536  c9            POP B                -- 
f537  b9            POP A                -- 
f538  00            NOP                  -- 
f539  0a            RETS                 -- return from subroutine
f53a  22  03        MOV %3,A             -- 
f53c  52  65        MOV %101,B           -- 
f53e  ca  fe        DJNZ B,@>f63c        -- 
f540  a2  00 06     MOVP %0,P6           -- 
f543  ba  f7        DJNZ A,@>f63a        -- 
f545  0a            RETS                 -- return from subroutine
f546  8a  60 00     LDA @>6000           -- 
f549  27  80 03     BTJZ %>128,A,@>f54c  -- 
f54c  8c  f5 59     BR @>START           -- 
f54f  a2  01 06     MOVP %1,P6           -- 
f552  8e  f5 3a     CALL @>f53a          -- 
f555  c9            POP B                -- 
f556  b9            POP A                -- 
f557  00            NOP                  -- 
f558  0b            RETI                 -- return from interrupt
START:
f559  a2  aa 00     MOVP %170,P0         -- 
f55c  8c  e0 59     BR @>MAIN            -- 
f55f  ff            TRAP-23              -- 
f560  ff            TRAP-23              -- 
f561  ff            TRAP-23              -- 
f562  ff            TRAP-23              -- 
f563  ff            TRAP-23              -- 
f564  ff            TRAP-23              -- 
f565  ff            TRAP-23              -- 
f566  ff            TRAP-23              -- 
f567  ff            TRAP-23              -- 
f568  ff            TRAP-23              -- 
f569  ff            TRAP-23              -- 
f56a  ff            TRAP-23              -- 
f56b  ff            TRAP-23              -- 
f56c  ff            TRAP-23              -- 
f56d  ff            TRAP-23              -- 
f56e  ff            TRAP-23              -- 
f56f  ff            TRAP-23              -- 
f570  ff            TRAP-23              -- 
f571  ff            TRAP-23              -- 
f572  ff            TRAP-23              -- 
f573  ff            TRAP-23              -- 
f574  ff            TRAP-23              -- 
f575  ff            TRAP-23              -- 
f576  ff            TRAP-23              -- 
f577  ff            TRAP-23              -- 
f578  ff            TRAP-23              -- 
f579  ff            TRAP-23              -- 
f57a  ff            TRAP-23              -- 
f57b  ff            TRAP-23              -- 
f57c  ff            TRAP-23              -- 
f57d  ff            TRAP-23              -- 
f57e  ff            TRAP-23              -- 
f57f  ff            TRAP-23              -- 
f580  ff            TRAP-23              -- 
f581  ff            TRAP-23              -- 
f582  ff            TRAP-23              -- 
f583  ff            TRAP-23              -- 
f584  ff            TRAP-23              -- 
f585  ff            TRAP-23              -- 
f586  ff            TRAP-23              -- 
f587  ff            TRAP-23              -- 
f588  ff            TRAP-23              -- 
f589  ff            TRAP-23              -- 
f58a  ff            TRAP-23              -- 
f58b  ff            TRAP-23              -- 
f58c  ff            TRAP-23              -- 
f58d  ff            TRAP-23              -- 
f58e  ff            TRAP-23              -- 
f58f  ff            TRAP-23              -- 
f590  ff            TRAP-23              -- 
f591  ff            TRAP-23              -- 
f592  ff            TRAP-23              -- 
f593  ff            TRAP-23              -- 
f594  ff            TRAP-23              -- 
f595  ff            TRAP-23              -- 
f596  ff            TRAP-23              -- 
f597  ff            TRAP-23              -- 
f598  ff            TRAP-23              -- 
f599  ff            TRAP-23              -- 
f59a  ff            TRAP-23              -- 
f59b  ff            TRAP-23              -- 
f59c  ff            TRAP-23              -- 
f59d  ff            TRAP-23              -- 
f59e  ff            TRAP-23              -- 
f59f  ff            TRAP-23              -- 
f5a0  ff            TRAP-23              -- 
f5a1  ff            TRAP-23              -- 
f5a2  ff            TRAP-23              -- 
f5a3  ff            TRAP-23              -- 
f5a4  ff            TRAP-23              -- 
f5a5  ff            TRAP-23              -- 
f5a6  ff            TRAP-23              -- 
f5a7  ff            TRAP-23              -- 
f5a8  ff            TRAP-23              -- 
f5a9  ff            TRAP-23              -- 
f5aa  ff            TRAP-23              -- 
f5ab  ff            TRAP-23              -- 
f5ac  ff            TRAP-23              -- 
f5ad  ff            TRAP-23              -- 
f5ae  ff            TRAP-23              -- 
f5af  ff            TRAP-23              -- 
f5b0  ff            TRAP-23              -- 
f5b1  ff            TRAP-23              -- 
f5b2  ff            TRAP-23              -- 
f5b3  ff            TRAP-23              -- 
f5b4  ff            TRAP-23              -- 
f5b5  ff            TRAP-23              -- 
f5b6  ff            TRAP-23              -- 
f5b7  ff            TRAP-23              -- 
f5b8  ff            TRAP-23              -- 
f5b9  ff            TRAP-23              -- 
f5ba  ff            TRAP-23              -- 
f5bb  ff            TRAP-23              -- 
f5bc  ff            TRAP-23              -- 
f5bd  ff            TRAP-23              -- 
f5be  ff            TRAP-23              -- 
f5bf  ff            TRAP-23              -- 
f5c0  ff            TRAP-23              -- 
f5c1  ff            TRAP-23              -- 
f5c2  ff            TRAP-23              -- 
f5c3  ff            TRAP-23              -- 
f5c4  ff            TRAP-23              -- 
f5c5  ff            TRAP-23              -- 
f5c6  ff            TRAP-23              -- 
f5c7  ff            TRAP-23              -- 
f5c8  ff            TRAP-23              -- 
f5c9  ff            TRAP-23              -- 
f5ca  ff            TRAP-23              -- 
f5cb  ff            TRAP-23              -- 
f5cc  ff            TRAP-23              -- 
f5cd  ff            TRAP-23              -- 
f5ce  ff            TRAP-23              -- 
f5cf  ff            TRAP-23              -- 
f5d0  ff            TRAP-23              -- 
f5d1  ff            TRAP-23              -- 
f5d2  ff            TRAP-23              -- 
f5d3  ff            TRAP-23              -- 
f5d4  ff            TRAP-23              -- 
f5d5  ff            TRAP-23              -- 
f5d6  ff            TRAP-23              -- 
f5d7  ff            TRAP-23              -- 
f5d8  ff            TRAP-23              -- 
f5d9  ff            TRAP-23              -- 
f5da  ff            TRAP-23              -- 
f5db  ff            TRAP-23              -- 
f5dc  ff            TRAP-23              -- 
f5dd  ff            TRAP-23              -- 
f5de  ff            TRAP-23              -- 
f5df  ff            TRAP-23              -- 
f5e0  ff            TRAP-23              -- 
f5e1  ff            TRAP-23              -- 
f5e2  ff            TRAP-23              -- 
f5e3  ff            TRAP-23              -- 
f5e4  ff            TRAP-23              -- 
f5e5  ff            TRAP-23              -- 
f5e6  ff            TRAP-23              -- 
f5e7  ff            TRAP-23              -- 
f5e8  ff            TRAP-23              -- 
f5e9  ff            TRAP-23              -- 
f5ea  ff            TRAP-23              -- 
f5eb  ff            TRAP-23              -- 
f5ec  ff            TRAP-23              -- 
f5ed  ff            TRAP-23              -- 
f5ee  ff            TRAP-23              -- 
f5ef  ff            TRAP-23              -- 
f5f0  ff            TRAP-23              -- 
f5f1  ff            TRAP-23              -- 
f5f2  ff            TRAP-23              -- 
f5f3  ff            TRAP-23              -- 
f5f4  ff            TRAP-23              -- 
f5f5  ff            TRAP-23              -- 
f5f6  ff            TRAP-23              -- 
f5f7  ff            TRAP-23              -- 
f5f8  ff            TRAP-23              -- 
f5f9  ff            TRAP-23              -- 
f5fa  ff            TRAP-23              -- 
f5fb  ff            TRAP-23              -- 
f5fc  ff            TRAP-23              -- 
f5fd  ff            TRAP-23              -- 
f5fe  ff            TRAP-23              -- 
f5ff  ff            TRAP-23              -- 
f600  ff            TRAP-23              -- 
f601  ff            TRAP-23              -- 
f602  ff            TRAP-23              -- 
f603  ff            TRAP-23              -- 
f604  ff            TRAP-23              -- 
f605  ff            TRAP-23              -- 
f606  ff            TRAP-23              -- 
f607  ff            TRAP-23              -- 
f608  ff            TRAP-23              -- 
f609  ff            TRAP-23              -- 
f60a  ff            TRAP-23              -- 
f60b  ff            TRAP-23              -- 
f60c  ff            TRAP-23              -- 
f60d  ff            TRAP-23              -- 
f60e  ff            TRAP-23              -- 
f60f  ff            TRAP-23              -- 
f610  ff            TRAP-23              -- 
f611  ff            TRAP-23              -- 
f612  ff            TRAP-23              -- 
f613  ff            TRAP-23              -- 
f614  ff            TRAP-23              -- 
f615  ff            TRAP-23              -- 
f616  ff            TRAP-23              -- 
f617  ff            TRAP-23              -- 
f618  ff            TRAP-23              -- 
f619  ff            TRAP-23              -- 
f61a  ff            TRAP-23              -- 
f61b  ff            TRAP-23              -- 
f61c  ff            TRAP-23              -- 
f61d  ff            TRAP-23              -- 
f61e  ff            TRAP-23              -- 
f61f  ff            TRAP-23              -- 
f620  ff            TRAP-23              -- 
f621  ff            TRAP-23              -- 
f622  ff            TRAP-23              -- 
f623  ff            TRAP-23              -- 
f624  ff            TRAP-23              -- 
f625  ff            TRAP-23              -- 
f626  ff            TRAP-23              -- 
f627  ff            TRAP-23              -- 
f628  ff            TRAP-23              -- 
f629  ff            TRAP-23              -- 
f62a  ff            TRAP-23              -- 
f62b  ff            TRAP-23              -- 
f62c  ff            TRAP-23              -- 
f62d  ff            TRAP-23              -- 
f62e  ff            TRAP-23              -- 
f62f  ff            TRAP-23              -- 
f630  ff            TRAP-23              -- 
f631  ff            TRAP-23              -- 
f632  ff            TRAP-23              -- 
f633  ff            TRAP-23              -- 
f634  ff            TRAP-23              -- 
f635  ff            TRAP-23              -- 
f636  ff            TRAP-23              -- 
f637  ff            TRAP-23              -- 
f638  ff            TRAP-23              -- 
f639  ff            TRAP-23              -- 
f63a  ff            TRAP-23              -- 
f63b  ff            TRAP-23              -- 
f63c  ff            TRAP-23              -- 
f63d  ff            TRAP-23              -- 
f63e  ff            TRAP-23              -- 
f63f  ff            TRAP-23              -- 
f640  ff            TRAP-23              -- 
f641  ff            TRAP-23              -- 
f642  ff            TRAP-23              -- 
f643  ff            TRAP-23              -- 
f644  ff            TRAP-23              -- 
f645  ff            TRAP-23              -- 
f646  ff            TRAP-23              -- 
f647  ff            TRAP-23              -- 
f648  ff            TRAP-23              -- 
f649  ff            TRAP-23              -- 
f64a  ff            TRAP-23              -- 
f64b  ff            TRAP-23              -- 
f64c  ff            TRAP-23              -- 
f64d  ff            TRAP-23              -- 
f64e  ff            TRAP-23              -- 
f64f  ff            TRAP-23              -- 
f650  ff            TRAP-23              -- 
f651  ff            TRAP-23              -- 
f652  ff            TRAP-23              -- 
f653  ff            TRAP-23              -- 
f654  ff            TRAP-23              -- 
f655  ff            TRAP-23              -- 
f656  ff            TRAP-23              -- 
f657  ff            TRAP-23              -- 
f658  ff            TRAP-23              -- 
f659  ff            TRAP-23              -- 
f65a  ff            TRAP-23              -- 
f65b  ff            TRAP-23              -- 
f65c  ff            TRAP-23              -- 
f65d  ff            TRAP-23              -- 
f65e  ff            TRAP-23              -- 
f65f  ff            TRAP-23              -- 
f660  ff            TRAP-23              -- 
f661  ff            TRAP-23              -- 
f662  ff            TRAP-23              -- 
f663  ff            TRAP-23              -- 
f664  ff            TRAP-23              -- 
f665  ff            TRAP-23              -- 
f666  ff            TRAP-23              -- 
f667  ff            TRAP-23              -- 
f668  ff            TRAP-23              -- 
f669  ff            TRAP-23              -- 
f66a  ff            TRAP-23              -- 
f66b  ff            TRAP-23              -- 
f66c  ff            TRAP-23              -- 
f66d  ff            TRAP-23              -- 
f66e  ff            TRAP-23              -- 
f66f  ff            TRAP-23              -- 
f670  ff            TRAP-23              -- 
f671  ff            TRAP-23              -- 
f672  ff            TRAP-23              -- 
f673  ff            TRAP-23              -- 
f674  ff            TRAP-23              -- 
f675  ff            TRAP-23              -- 
f676  ff            TRAP-23              -- 
f677  ff            TRAP-23              -- 
f678  ff            TRAP-23              -- 
f679  ff            TRAP-23              -- 
f67a  ff            TRAP-23              -- 
f67b  ff            TRAP-23              -- 
f67c  ff            TRAP-23              -- 
f67d  ff            TRAP-23              -- 
f67e  ff            TRAP-23              -- 
f67f  ff            TRAP-23              -- 
f680  ff            TRAP-23              -- 
f681  ff            TRAP-23              -- 
f682  ff            TRAP-23              -- 
f683  ff            TRAP-23              -- 
f684  ff            TRAP-23              -- 
f685  ff            TRAP-23              -- 
f686  ff            TRAP-23              -- 
f687  ff            TRAP-23              -- 
f688  ff            TRAP-23              -- 
f689  ff            TRAP-23              -- 
f68a  ff            TRAP-23              -- 
f68b  ff            TRAP-23              -- 
f68c  ff            TRAP-23              -- 
f68d  ff            TRAP-23              -- 
f68e  ff            TRAP-23              -- 
f68f  ff            TRAP-23              -- 
f690  ff            TRAP-23              -- 
f691  ff            TRAP-23              -- 
f692  ff            TRAP-23              -- 
f693  ff            TRAP-23              -- 
f694  ff            TRAP-23              -- 
f695  ff            TRAP-23              -- 
f696  ff            TRAP-23              -- 
f697  ff            TRAP-23              -- 
f698  ff            TRAP-23              -- 
f699  ff            TRAP-23              -- 
f69a  ff            TRAP-23              -- 
f69b  ff            TRAP-23              -- 
f69c  ff            TRAP-23              -- 
f69d  ff            TRAP-23              -- 
f69e  ff            TRAP-23              -- 
f69f  ff            TRAP-23              -- 
f6a0  ff            TRAP-23              -- 
f6a1  ff            TRAP-23              -- 
f6a2  ff            TRAP-23              -- 
f6a3  ff            TRAP-23              -- 
f6a4  ff            TRAP-23              -- 
f6a5  ff            TRAP-23              -- 
f6a6  ff            TRAP-23              -- 
f6a7  ff            TRAP-23              -- 
f6a8  ff            TRAP-23              -- 
f6a9  ff            TRAP-23              -- 
f6aa  ff            TRAP-23              -- 
f6ab  ff            TRAP-23              -- 
f6ac  ff            TRAP-23              -- 
f6ad  ff            TRAP-23              -- 
f6ae  ff            TRAP-23              -- 
f6af  ff            TRAP-23              -- 
f6b0  ff            TRAP-23              -- 
f6b1  ff            TRAP-23              -- 
f6b2  ff            TRAP-23              -- 
f6b3  ff            TRAP-23              -- 
f6b4  ff            TRAP-23              -- 
f6b5  ff            TRAP-23              -- 
f6b6  ff            TRAP-23              -- 
f6b7  ff            TRAP-23              -- 
f6b8  ff            TRAP-23              -- 
f6b9  ff            TRAP-23              -- 
f6ba  ff            TRAP-23              -- 
f6bb  ff            TRAP-23              -- 
f6bc  ff            TRAP-23              -- 
f6bd  ff            TRAP-23              -- 
f6be  ff            TRAP-23              -- 
f6bf  ff            TRAP-23              -- 
f6c0  ff            TRAP-23              -- 
f6c1  ff            TRAP-23              -- 
f6c2  ff            TRAP-23              -- 
f6c3  ff            TRAP-23              -- 
f6c4  ff            TRAP-23              -- 
f6c5  ff            TRAP-23              -- 
f6c6  ff            TRAP-23              -- 
f6c7  ff            TRAP-23              -- 
f6c8  ff            TRAP-23              -- 
f6c9  ff            TRAP-23              -- 
f6ca  ff            TRAP-23              -- 
f6cb  ff            TRAP-23              -- 
f6cc  ff            TRAP-23              -- 
f6cd  ff            TRAP-23              -- 
f6ce  ff            TRAP-23              -- 
f6cf  ff            TRAP-23              -- 
f6d0  ff            TRAP-23              -- 
f6d1  ff            TRAP-23              -- 
f6d2  ff            TRAP-23              -- 
f6d3  ff            TRAP-23              -- 
f6d4  ff            TRAP-23              -- 
f6d5  ff            TRAP-23              -- 
f6d6  ff            TRAP-23              -- 
f6d7  ff            TRAP-23              -- 
f6d8  ff            TRAP-23              -- 
f6d9  ff            TRAP-23              -- 
f6da  ff            TRAP-23              -- 
f6db  ff            TRAP-23              -- 
f6dc  ff            TRAP-23              -- 
f6dd  ff            TRAP-23              -- 
f6de  ff            TRAP-23              -- 
f6df  ff            TRAP-23              -- 
f6e0  ff            TRAP-23              -- 
f6e1  ff            TRAP-23              -- 
f6e2  ff            TRAP-23              -- 
f6e3  ff            TRAP-23              -- 
f6e4  ff            TRAP-23              -- 
f6e5  ff            TRAP-23              -- 
f6e6  ff            TRAP-23              -- 
f6e7  ff            TRAP-23              -- 
f6e8  ff            TRAP-23              -- 
f6e9  ff            TRAP-23              -- 
f6ea  ff            TRAP-23              -- 
f6eb  ff            TRAP-23              -- 
f6ec  ff            TRAP-23              -- 
f6ed  ff            TRAP-23              -- 
f6ee  ff            TRAP-23              -- 
f6ef  ff            TRAP-23              -- 
f6f0  ff            TRAP-23              -- 
f6f1  ff            TRAP-23              -- 
f6f2  ff            TRAP-23              -- 
f6f3  ff            TRAP-23              -- 
f6f4  ff            TRAP-23              -- 
f6f5  ff            TRAP-23              -- 
f6f6  ff            TRAP-23              -- 
f6f7  ff            TRAP-23              -- 
f6f8  ff            TRAP-23              -- 
f6f9  ff            TRAP-23              -- 
f6fa  ff            TRAP-23              -- 
f6fb  ff            TRAP-23              -- 
f6fc  ff            TRAP-23              -- 
f6fd  ff            TRAP-23              -- 
f6fe  ff            TRAP-23              -- 
f6ff  ff            TRAP-23              -- 
f700  ff            TRAP-23              -- 
f701  ff            TRAP-23              -- 
f702  ff            TRAP-23              -- 
f703  ff            TRAP-23              -- 
f704  ff            TRAP-23              -- 
f705  ff            TRAP-23              -- 
f706  ff            TRAP-23              -- 
f707  ff            TRAP-23              -- 
f708  ff            TRAP-23              -- 
f709  ff            TRAP-23              -- 
f70a  ff            TRAP-23              -- 
f70b  ff            TRAP-23              -- 
f70c  ff            TRAP-23              -- 
f70d  ff            TRAP-23              -- 
f70e  ff            TRAP-23              -- 
f70f  ff            TRAP-23              -- 
f710  ff            TRAP-23              -- 
f711  ff            TRAP-23              -- 
f712  ff            TRAP-23              -- 
f713  ff            TRAP-23              -- 
f714  ff            TRAP-23              -- 
f715  ff            TRAP-23              -- 
f716  ff            TRAP-23              -- 
f717  ff            TRAP-23              -- 
f718  ff            TRAP-23              -- 
f719  ff            TRAP-23              -- 
f71a  ff            TRAP-23              -- 
f71b  ff            TRAP-23              -- 
f71c  ff            TRAP-23              -- 
f71d  ff            TRAP-23              -- 
f71e  ff            TRAP-23              -- 
f71f  ff            TRAP-23              -- 
f720  ff            TRAP-23              -- 
f721  ff            TRAP-23              -- 
f722  ff            TRAP-23              -- 
f723  ff            TRAP-23              -- 
f724  ff            TRAP-23              -- 
f725  ff            TRAP-23              -- 
f726  ff            TRAP-23              -- 
f727  ff            TRAP-23              -- 
f728  ff            TRAP-23              -- 
f729  ff            TRAP-23              -- 
f72a  ff            TRAP-23              -- 
f72b  ff            TRAP-23              -- 
f72c  ff            TRAP-23              -- 
f72d  ff            TRAP-23              -- 
f72e  ff            TRAP-23              -- 
f72f  ff            TRAP-23              -- 
f730  ff            TRAP-23              -- 
f731  ff            TRAP-23              -- 
f732  ff            TRAP-23              -- 
f733  ff            TRAP-23              -- 
f734  ff            TRAP-23              -- 
f735  ff            TRAP-23              -- 
f736  ff            TRAP-23              -- 
f737  ff            TRAP-23              -- 
f738  ff            TRAP-23              -- 
f739  ff            TRAP-23              -- 
f73a  ff            TRAP-23              -- 
f73b  ff            TRAP-23              -- 
f73c  ff            TRAP-23              -- 
f73d  ff            TRAP-23              -- 
f73e  ff            TRAP-23              -- 
f73f  ff            TRAP-23              -- 
f740  ff            TRAP-23              -- 
f741  ff            TRAP-23              -- 
f742  ff            TRAP-23              -- 
f743  ff            TRAP-23              -- 
f744  ff            TRAP-23              -- 
f745  ff            TRAP-23              -- 
f746  ff            TRAP-23              -- 
f747  ff            TRAP-23              -- 
f748  ff            TRAP-23              -- 
f749  ff            TRAP-23              -- 
f74a  ff            TRAP-23              -- 
f74b  ff            TRAP-23              -- 
f74c  ff            TRAP-23              -- 
f74d  ff            TRAP-23              -- 
f74e  ff            TRAP-23              -- 
f74f  ff            TRAP-23              -- 
f750  ff            TRAP-23              -- 
f751  ff            TRAP-23              -- 
f752  ff            TRAP-23              -- 
f753  ff            TRAP-23              -- 
f754  ff            TRAP-23              -- 
f755  ff            TRAP-23              -- 
f756  ff            TRAP-23              -- 
f757  ff            TRAP-23              -- 
f758  ff            TRAP-23              -- 
f759  ff            TRAP-23              -- 
f75a  ff            TRAP-23              -- 
f75b  ff            TRAP-23              -- 
f75c  ff            TRAP-23              -- 
f75d  ff            TRAP-23              -- 
f75e  ff            TRAP-23              -- 
f75f  ff            TRAP-23              -- 
f760  ff            TRAP-23              -- 
f761  ff            TRAP-23              -- 
f762  ff            TRAP-23              -- 
f763  ff            TRAP-23              -- 
f764  ff            TRAP-23              -- 
f765  ff            TRAP-23              -- 
f766  ff            TRAP-23              -- 
f767  ff            TRAP-23              -- 
f768  ff            TRAP-23              -- 
f769  ff            TRAP-23              -- 
f76a  ff            TRAP-23              -- 
f76b  ff            TRAP-23              -- 
f76c  ff            TRAP-23              -- 
f76d  ff            TRAP-23              -- 
f76e  ff            TRAP-23              -- 
f76f  ff            TRAP-23              -- 
f770  ff            TRAP-23              -- 
f771  ff            TRAP-23              -- 
f772  ff            TRAP-23              -- 
f773  ff            TRAP-23              -- 
f774  ff            TRAP-23              -- 
f775  ff            TRAP-23              -- 
f776  ff            TRAP-23              -- 
f777  ff            TRAP-23              -- 
f778  ff            TRAP-23              -- 
f779  ff            TRAP-23              -- 
f77a  ff            TRAP-23              -- 
f77b  ff            TRAP-23              -- 
f77c  ff            TRAP-23              -- 
f77d  ff            TRAP-23              -- 
f77e  ff            TRAP-23              -- 
f77f  ff            TRAP-23              -- 
f780  ff            TRAP-23              -- 
f781  ff            TRAP-23              -- 
f782  ff            TRAP-23              -- 
f783  ff            TRAP-23              -- 
f784  ff            TRAP-23              -- 
f785  ff            TRAP-23              -- 
f786  ff            TRAP-23              -- 
f787  ff            TRAP-23              -- 
f788  ff            TRAP-23              -- 
f789  ff            TRAP-23              -- 
f78a  ff            TRAP-23              -- 
f78b  ff            TRAP-23              -- 
f78c  ff            TRAP-23              -- 
f78d  ff            TRAP-23              -- 
f78e  ff            TRAP-23              -- 
f78f  ff            TRAP-23              -- 
f790  ff            TRAP-23              -- 
f791  ff            TRAP-23              -- 
f792  ff            TRAP-23              -- 
f793  ff            TRAP-23              -- 
f794  ff            TRAP-23              -- 
f795  ff            TRAP-23              -- 
f796  ff            TRAP-23              -- 
f797  ff            TRAP-23              -- 
f798  ff            TRAP-23              -- 
f799  ff            TRAP-23              -- 
f79a  ff            TRAP-23              -- 
f79b  ff            TRAP-23              -- 
f79c  ff            TRAP-23              -- 
f79d  ff            TRAP-23              -- 
f79e  ff            TRAP-23              -- 
f79f  ff            TRAP-23              -- 
f7a0  ff            TRAP-23              -- 
f7a1  ff            TRAP-23              -- 
f7a2  ff            TRAP-23              -- 
f7a3  ff            TRAP-23              -- 
f7a4  ff            TRAP-23              -- 
f7a5  ff            TRAP-23              -- 
f7a6  ff            TRAP-23              -- 
f7a7  ff            TRAP-23              -- 
f7a8  ff            TRAP-23              -- 
f7a9  ff            TRAP-23              -- 
f7aa  ff            TRAP-23              -- 
f7ab  ff            TRAP-23              -- 
f7ac  ff            TRAP-23              -- 
f7ad  ff            TRAP-23              -- 
f7ae  ff            TRAP-23              -- 
f7af  ff            TRAP-23              -- 
f7b0  ff            TRAP-23              -- 
f7b1  ff            TRAP-23              -- 
f7b2  ff            TRAP-23              -- 
f7b3  ff            TRAP-23              -- 
f7b4  ff            TRAP-23              -- 
f7b5  ff            TRAP-23              -- 
f7b6  ff            TRAP-23              -- 
f7b7  ff            TRAP-23              -- 
f7b8  ff            TRAP-23              -- 
f7b9  ff            TRAP-23              -- 
f7ba  ff            TRAP-23              -- 
f7bb  ff            TRAP-23              -- 
f7bc  ff            TRAP-23              -- 
f7bd  ff            TRAP-23              -- 
f7be  ff            TRAP-23              -- 
f7bf  ff            TRAP-23              -- 
f7c0  ff            TRAP-23              -- 
f7c1  ff            TRAP-23              -- 
f7c2  ff            TRAP-23              -- 
f7c3  ff            TRAP-23              -- 
f7c4  ff            TRAP-23              -- 
f7c5  ff            TRAP-23              -- 
f7c6  ff            TRAP-23              -- 
f7c7  ff            TRAP-23              -- 
f7c8  ff            TRAP-23              -- 
f7c9  ff            TRAP-23              -- 
f7ca  ff            TRAP-23              -- 
f7cb  ff            TRAP-23              -- 
f7cc  ff            TRAP-23              -- 
f7cd  ff            TRAP-23              -- 
f7ce  ff            TRAP-23              -- 
f7cf  ff            TRAP-23              -- 
f7d0  ff            TRAP-23              -- 
f7d1  ff            TRAP-23              -- 
f7d2  ff            TRAP-23              -- 
f7d3  ff            TRAP-23              -- 
f7d4  ff            TRAP-23              -- 
f7d5  ff            TRAP-23              -- 
f7d6  ff            TRAP-23              -- 
f7d7  ff            TRAP-23              -- 
f7d8  ff            TRAP-23              -- 
f7d9  ff            TRAP-23              -- 
f7da  ff            TRAP-23              -- 
f7db  ff            TRAP-23              -- 
f7dc  ff            TRAP-23              -- 
f7dd  ff            TRAP-23              -- 
f7de  ff            TRAP-23              -- 
f7df  ff            TRAP-23              -- 
f7e0  ff            TRAP-23              -- 
f7e1  ff            TRAP-23              -- 
f7e2  ff            TRAP-23              -- 
f7e3  ff            TRAP-23              -- 
f7e4  ff            TRAP-23              -- 
f7e5  ff            TRAP-23              -- 
f7e6  ff            TRAP-23              -- 
f7e7  ff            TRAP-23              -- 
f7e8  ff            TRAP-23              -- 
f7e9  ff            TRAP-23              -- 
f7ea  ff            TRAP-23              -- 
f7eb  ff            TRAP-23              -- 
f7ec  ff            TRAP-23              -- 
f7ed  ff            TRAP-23              -- 
f7ee  ff            TRAP-23              -- 
f7ef  ff            TRAP-23              -- 
f7f0  ff            TRAP-23              -- 
f7f1  ff            TRAP-23              -- 
f7f2  ff            TRAP-23              -- 
f7f3  ff            TRAP-23              -- 
f7f4  ff            TRAP-23              -- 
f7f5  ff            TRAP-23              -- 
f7f6  ff            TRAP-23              -- 
f7f7  ff            TRAP-23              -- 
f7f8  ff            TRAP-23              -- 
f7f9  ff            TRAP-23              -- 
f7fa  ff            TRAP-23              -- 
f7fb  ff            TRAP-23              -- 
f7fc  ff            TRAP-23              -- 
f7fd  ff            TRAP-23              -- 
f7fe  ff            TRAP-23              -- 
f7ff  ff            TRAP-23              -- 
f800  ff            TRAP-23              -- 
f801  ff            TRAP-23              -- 
f802  ff            TRAP-23              -- 
f803  ff            TRAP-23              -- 
f804  ff            TRAP-23              -- 
f805  ff            TRAP-23              -- 
f806  ff            TRAP-23              -- 
f807  ff            TRAP-23              -- 
f808  ff            TRAP-23              -- 
f809  ff            TRAP-23              -- 
f80a  ff            TRAP-23              -- 
f80b  ff            TRAP-23              -- 
f80c  ff            TRAP-23              -- 
f80d  ff            TRAP-23              -- 
f80e  ff            TRAP-23              -- 
f80f  ff            TRAP-23              -- 
f810  ff            TRAP-23              -- 
f811  ff            TRAP-23              -- 
f812  ff            TRAP-23              -- 
f813  ff            TRAP-23              -- 
f814  ff            TRAP-23              -- 
f815  ff            TRAP-23              -- 
f816  ff            TRAP-23              -- 
f817  ff            TRAP-23              -- 
f818  ff            TRAP-23              -- 
f819  ff            TRAP-23              -- 
f81a  ff            TRAP-23              -- 
f81b  ff            TRAP-23              -- 
f81c  ff            TRAP-23              -- 
f81d  ff            TRAP-23              -- 
f81e  ff            TRAP-23              -- 
f81f  ff            TRAP-23              -- 
f820  ff            TRAP-23              -- 
f821  ff            TRAP-23              -- 
f822  ff            TRAP-23              -- 
f823  ff            TRAP-23              -- 
f824  ff            TRAP-23              -- 
f825  ff            TRAP-23              -- 
f826  ff            TRAP-23              -- 
f827  ff            TRAP-23              -- 
f828  ff            TRAP-23              -- 
f829  ff            TRAP-23              -- 
f82a  ff            TRAP-23              -- 
f82b  ff            TRAP-23              -- 
f82c  ff            TRAP-23              -- 
f82d  ff            TRAP-23              -- 
f82e  ff            TRAP-23              -- 
f82f  ff            TRAP-23              -- 
f830  ff            TRAP-23              -- 
f831  ff            TRAP-23              -- 
f832  ff            TRAP-23              -- 
f833  ff            TRAP-23              -- 
f834  ff            TRAP-23              -- 
f835  ff            TRAP-23              -- 
f836  ff            TRAP-23              -- 
f837  ff            TRAP-23              -- 
f838  ff            TRAP-23              -- 
f839  ff            TRAP-23              -- 
f83a  ff            TRAP-23              -- 
f83b  ff            TRAP-23              -- 
f83c  ff            TRAP-23              -- 
f83d  ff            TRAP-23              -- 
f83e  ff            TRAP-23              -- 
f83f  ff            TRAP-23              -- 
f840  ff            TRAP-23              -- 
f841  ff            TRAP-23              -- 
f842  ff            TRAP-23              -- 
f843  ff            TRAP-23              -- 
f844  ff            TRAP-23              -- 
f845  ff            TRAP-23              -- 
f846  ff            TRAP-23              -- 
f847  ff            TRAP-23              -- 
f848  ff            TRAP-23              -- 
f849  ff            TRAP-23              -- 
f84a  ff            TRAP-23              -- 
f84b  ff            TRAP-23              -- 
f84c  ff            TRAP-23              -- 
f84d  ff            TRAP-23              -- 
f84e  ff            TRAP-23              -- 
f84f  ff            TRAP-23              -- 
f850  ff            TRAP-23              -- 
f851  ff            TRAP-23              -- 
f852  ff            TRAP-23              -- 
f853  ff            TRAP-23              -- 
f854  ff            TRAP-23              -- 
f855  ff            TRAP-23              -- 
f856  ff            TRAP-23              -- 
f857  ff            TRAP-23              -- 
f858  ff            TRAP-23              -- 
f859  ff            TRAP-23              -- 
f85a  ff            TRAP-23              -- 
f85b  ff            TRAP-23              -- 
f85c  ff            TRAP-23              -- 
f85d  ff            TRAP-23              -- 
f85e  ff            TRAP-23              -- 
f85f  ff            TRAP-23              -- 
f860  ff            TRAP-23              -- 
f861  ff            TRAP-23              -- 
f862  ff            TRAP-23              -- 
f863  ff            TRAP-23              -- 
f864  ff            TRAP-23              -- 
f865  ff            TRAP-23              -- 
f866  ff            TRAP-23              -- 
f867  ff            TRAP-23              -- 
f868  ff            TRAP-23              -- 
f869  ff            TRAP-23              -- 
f86a  ff            TRAP-23              -- 
f86b  ff            TRAP-23              -- 
f86c  ff            TRAP-23              -- 
f86d  ff            TRAP-23              -- 
f86e  ff            TRAP-23              -- 
f86f  ff            TRAP-23              -- 
f870  ff            TRAP-23              -- 
f871  ff            TRAP-23              -- 
f872  ff            TRAP-23              -- 
f873  ff            TRAP-23              -- 
f874  ff            TRAP-23              -- 
f875  ff            TRAP-23              -- 
f876  ff            TRAP-23              -- 
f877  ff            TRAP-23              -- 
f878  ff            TRAP-23              -- 
f879  ff            TRAP-23              -- 
f87a  ff            TRAP-23              -- 
f87b  ff            TRAP-23              -- 
f87c  ff            TRAP-23              -- 
f87d  ff            TRAP-23              -- 
f87e  ff            TRAP-23              -- 
f87f  ff            TRAP-23              -- 
f880  ff            TRAP-23              -- 
f881  ff            TRAP-23              -- 
f882  ff            TRAP-23              -- 
f883  ff            TRAP-23              -- 
f884  ff            TRAP-23              -- 
f885  ff            TRAP-23              -- 
f886  ff            TRAP-23              -- 
f887  ff            TRAP-23              -- 
f888  ff            TRAP-23              -- 
f889  ff            TRAP-23              -- 
f88a  ff            TRAP-23              -- 
f88b  ff            TRAP-23              -- 
f88c  ff            TRAP-23              -- 
f88d  ff            TRAP-23              -- 
f88e  ff            TRAP-23              -- 
f88f  ff            TRAP-23              -- 
f890  ff            TRAP-23              -- 
f891  ff            TRAP-23              -- 
f892  ff            TRAP-23              -- 
f893  ff            TRAP-23              -- 
f894  ff            TRAP-23              -- 
f895  ff            TRAP-23              -- 
f896  ff            TRAP-23              -- 
f897  ff            TRAP-23              -- 
f898  ff            TRAP-23              -- 
f899  ff            TRAP-23              -- 
f89a  ff            TRAP-23              -- 
f89b  ff            TRAP-23              -- 
f89c  ff            TRAP-23              -- 
f89d  ff            TRAP-23              -- 
f89e  ff            TRAP-23              -- 
f89f  ff            TRAP-23              -- 
f8a0  ff            TRAP-23              -- 
f8a1  ff            TRAP-23              -- 
f8a2  ff            TRAP-23              -- 
f8a3  ff            TRAP-23              -- 
f8a4  ff            TRAP-23              -- 
f8a5  ff            TRAP-23              -- 
f8a6  ff            TRAP-23              -- 
f8a7  ff            TRAP-23              -- 
f8a8  ff            TRAP-23              -- 
f8a9  ff            TRAP-23              -- 
f8aa  ff            TRAP-23              -- 
f8ab  ff            TRAP-23              -- 
f8ac  ff            TRAP-23              -- 
f8ad  ff            TRAP-23              -- 
f8ae  ff            TRAP-23              -- 
f8af  ff            TRAP-23              -- 
f8b0  ff            TRAP-23              -- 
f8b1  ff            TRAP-23              -- 
f8b2  ff            TRAP-23              -- 
f8b3  ff            TRAP-23              -- 
f8b4  ff            TRAP-23              -- 
f8b5  ff            TRAP-23              -- 
f8b6  ff            TRAP-23              -- 
f8b7  ff            TRAP-23              -- 
f8b8  ff            TRAP-23              -- 
f8b9  ff            TRAP-23              -- 
f8ba  ff            TRAP-23              -- 
f8bb  ff            TRAP-23              -- 
f8bc  ff            TRAP-23              -- 
f8bd  ff            TRAP-23              -- 
f8be  ff            TRAP-23              -- 
f8bf  ff            TRAP-23              -- 
f8c0  ff            TRAP-23              -- 
f8c1  ff            TRAP-23              -- 
f8c2  ff            TRAP-23              -- 
f8c3  ff            TRAP-23              -- 
f8c4  ff            TRAP-23              -- 
f8c5  ff            TRAP-23              -- 
f8c6  ff            TRAP-23              -- 
f8c7  ff            TRAP-23              -- 
f8c8  ff            TRAP-23              -- 
f8c9  ff            TRAP-23              -- 
f8ca  ff            TRAP-23              -- 
f8cb  ff            TRAP-23              -- 
f8cc  ff            TRAP-23              -- 
f8cd  ff            TRAP-23              -- 
f8ce  ff            TRAP-23              -- 
f8cf  ff            TRAP-23              -- 
f8d0  ff            TRAP-23              -- 
f8d1  ff            TRAP-23              -- 
f8d2  ff            TRAP-23              -- 
f8d3  ff            TRAP-23              -- 
f8d4  ff            TRAP-23              -- 
f8d5  ff            TRAP-23              -- 
f8d6  ff            TRAP-23              -- 
f8d7  ff            TRAP-23              -- 
f8d8  ff            TRAP-23              -- 
f8d9  ff            TRAP-23              -- 
f8da  ff            TRAP-23              -- 
f8db  ff            TRAP-23              -- 
f8dc  ff            TRAP-23              -- 
f8dd  ff            TRAP-23              -- 
f8de  ff            TRAP-23              -- 
f8df  ff            TRAP-23              -- 
f8e0  ff            TRAP-23              -- 
f8e1  ff            TRAP-23              -- 
f8e2  ff            TRAP-23              -- 
f8e3  ff            TRAP-23              -- 
f8e4  ff            TRAP-23              -- 
f8e5  ff            TRAP-23              -- 
f8e6  ff            TRAP-23              -- 
f8e7  ff            TRAP-23              -- 
f8e8  ff            TRAP-23              -- 
f8e9  ff            TRAP-23              -- 
f8ea  ff            TRAP-23              -- 
f8eb  ff            TRAP-23              -- 
f8ec  ff            TRAP-23              -- 
f8ed  ff            TRAP-23              -- 
f8ee  ff            TRAP-23              -- 
f8ef  ff            TRAP-23              -- 
f8f0  ff            TRAP-23              -- 
f8f1  ff            TRAP-23              -- 
f8f2  ff            TRAP-23              -- 
f8f3  ff            TRAP-23              -- 
f8f4  ff            TRAP-23              -- 
f8f5  ff            TRAP-23              -- 
f8f6  ff            TRAP-23              -- 
f8f7  ff            TRAP-23              -- 
f8f8  ff            TRAP-23              -- 
f8f9  ff            TRAP-23              -- 
f8fa  ff            TRAP-23              -- 
f8fb  ff            TRAP-23              -- 
f8fc  ff            TRAP-23              -- 
f8fd  ff            TRAP-23              -- 
f8fe  ff            TRAP-23              -- 
f8ff  ff            TRAP-23              -- 
f900  ff            TRAP-23              -- 
f901  ff            TRAP-23              -- 
f902  ff            TRAP-23              -- 
f903  ff            TRAP-23              -- 
f904  ff            TRAP-23              -- 
f905  ff            TRAP-23              -- 
f906  ff            TRAP-23              -- 
f907  ff            TRAP-23              -- 
f908  ff            TRAP-23              -- 
f909  ff            TRAP-23              -- 
f90a  ff            TRAP-23              -- 
f90b  ff            TRAP-23              -- 
f90c  ff            TRAP-23              -- 
f90d  ff            TRAP-23              -- 
f90e  ff            TRAP-23              -- 
f90f  ff            TRAP-23              -- 
f910  ff            TRAP-23              -- 
f911  ff            TRAP-23              -- 
f912  ff            TRAP-23              -- 
f913  ff            TRAP-23              -- 
f914  ff            TRAP-23              -- 
f915  ff            TRAP-23              -- 
f916  ff            TRAP-23              -- 
f917  ff            TRAP-23              -- 
f918  ff            TRAP-23              -- 
f919  ff            TRAP-23              -- 
f91a  ff            TRAP-23              -- 
f91b  ff            TRAP-23              -- 
f91c  ff            TRAP-23              -- 
f91d  ff            TRAP-23              -- 
f91e  ff            TRAP-23              -- 
f91f  ff            TRAP-23              -- 
f920  ff            TRAP-23              -- 
f921  ff            TRAP-23              -- 
f922  ff            TRAP-23              -- 
f923  ff            TRAP-23              -- 
f924  ff            TRAP-23              -- 
f925  ff            TRAP-23              -- 
f926  ff            TRAP-23              -- 
f927  ff            TRAP-23              -- 
f928  ff            TRAP-23              -- 
f929  ff            TRAP-23              -- 
f92a  ff            TRAP-23              -- 
f92b  ff            TRAP-23              -- 
f92c  ff            TRAP-23              -- 
f92d  ff            TRAP-23              -- 
f92e  ff            TRAP-23              -- 
f92f  ff            TRAP-23              -- 
f930  ff            TRAP-23              -- 
f931  ff            TRAP-23              -- 
f932  ff            TRAP-23              -- 
f933  ff            TRAP-23              -- 
f934  ff            TRAP-23              -- 
f935  ff            TRAP-23              -- 
f936  ff            TRAP-23              -- 
f937  ff            TRAP-23              -- 
f938  ff            TRAP-23              -- 
f939  ff            TRAP-23              -- 
f93a  ff            TRAP-23              -- 
f93b  ff            TRAP-23              -- 
f93c  ff            TRAP-23              -- 
f93d  ff            TRAP-23              -- 
f93e  ff            TRAP-23              -- 
f93f  ff            TRAP-23              -- 
f940  ff            TRAP-23              -- 
f941  ff            TRAP-23              -- 
f942  ff            TRAP-23              -- 
f943  ff            TRAP-23              -- 
f944  ff            TRAP-23              -- 
f945  ff            TRAP-23              -- 
f946  ff            TRAP-23              -- 
f947  ff            TRAP-23              -- 
f948  ff            TRAP-23              -- 
f949  ff            TRAP-23              -- 
f94a  ff            TRAP-23              -- 
f94b  ff            TRAP-23              -- 
f94c  ff            TRAP-23              -- 
f94d  ff            TRAP-23              -- 
f94e  ff            TRAP-23              -- 
f94f  ff            TRAP-23              -- 
f950  ff            TRAP-23              -- 
f951  ff            TRAP-23              -- 
f952  ff            TRAP-23              -- 
f953  ff            TRAP-23              -- 
f954  ff            TRAP-23              -- 
f955  ff            TRAP-23              -- 
f956  ff            TRAP-23              -- 
f957  ff            TRAP-23              -- 
f958  ff            TRAP-23              -- 
f959  ff            TRAP-23              -- 
f95a  ff            TRAP-23              -- 
f95b  ff            TRAP-23              -- 
f95c  ff            TRAP-23              -- 
f95d  ff            TRAP-23              -- 
f95e  ff            TRAP-23              -- 
f95f  ff            TRAP-23              -- 
f960  ff            TRAP-23              -- 
f961  ff            TRAP-23              -- 
f962  ff            TRAP-23              -- 
f963  ff            TRAP-23              -- 
f964  ff            TRAP-23              -- 
f965  ff            TRAP-23              -- 
f966  ff            TRAP-23              -- 
f967  ff            TRAP-23              -- 
f968  ff            TRAP-23              -- 
f969  ff            TRAP-23              -- 
f96a  ff            TRAP-23              -- 
f96b  ff            TRAP-23              -- 
f96c  ff            TRAP-23              -- 
f96d  ff            TRAP-23              -- 
f96e  ff            TRAP-23              -- 
f96f  ff            TRAP-23              -- 
f970  ff            TRAP-23              -- 
f971  ff            TRAP-23              -- 
f972  ff            TRAP-23              -- 
f973  ff            TRAP-23              -- 
f974  ff            TRAP-23              -- 
f975  ff            TRAP-23              -- 
f976  ff            TRAP-23              -- 
f977  ff            TRAP-23              -- 
f978  ff            TRAP-23              -- 
f979  ff            TRAP-23              -- 
f97a  ff            TRAP-23              -- 
f97b  ff            TRAP-23              -- 
f97c  ff            TRAP-23              -- 
f97d  ff            TRAP-23              -- 
f97e  ff            TRAP-23              -- 
f97f  ff            TRAP-23              -- 
f980  ff            TRAP-23              -- 
f981  ff            TRAP-23              -- 
f982  ff            TRAP-23              -- 
f983  ff            TRAP-23              -- 
f984  ff            TRAP-23              -- 
f985  ff            TRAP-23              -- 
f986  ff            TRAP-23              -- 
f987  ff            TRAP-23              -- 
f988  ff            TRAP-23              -- 
f989  ff            TRAP-23              -- 
f98a  ff            TRAP-23              -- 
f98b  ff            TRAP-23              -- 
f98c  ff            TRAP-23              -- 
f98d  ff            TRAP-23              -- 
f98e  ff            TRAP-23              -- 
f98f  ff            TRAP-23              -- 
f990  ff            TRAP-23              -- 
f991  ff            TRAP-23              -- 
f992  ff            TRAP-23              -- 
f993  ff            TRAP-23              -- 
f994  ff            TRAP-23              -- 
f995  ff            TRAP-23              -- 
f996  ff            TRAP-23              -- 
f997  ff            TRAP-23              -- 
f998  ff            TRAP-23              -- 
f999  ff            TRAP-23              -- 
f99a  ff            TRAP-23              -- 
f99b  ff            TRAP-23              -- 
f99c  ff            TRAP-23              -- 
f99d  ff            TRAP-23              -- 
f99e  ff            TRAP-23              -- 
f99f  ff            TRAP-23              -- 
f9a0  ff            TRAP-23              -- 
f9a1  ff            TRAP-23              -- 
f9a2  ff            TRAP-23              -- 
f9a3  ff            TRAP-23              -- 
f9a4  ff            TRAP-23              -- 
f9a5  ff            TRAP-23              -- 
f9a6  ff            TRAP-23              -- 
f9a7  ff            TRAP-23              -- 
f9a8  ff            TRAP-23              -- 
f9a9  ff            TRAP-23              -- 
f9aa  ff            TRAP-23              -- 
f9ab  ff            TRAP-23              -- 
f9ac  ff            TRAP-23              -- 
f9ad  ff            TRAP-23              -- 
f9ae  ff            TRAP-23              -- 
f9af  ff            TRAP-23              -- 
f9b0  ff            TRAP-23              -- 
f9b1  ff            TRAP-23              -- 
f9b2  ff            TRAP-23              -- 
f9b3  ff            TRAP-23              -- 
f9b4  ff            TRAP-23              -- 
f9b5  ff            TRAP-23              -- 
f9b6  ff            TRAP-23              -- 
f9b7  ff            TRAP-23              -- 
f9b8  ff            TRAP-23              -- 
f9b9  ff            TRAP-23              -- 
f9ba  ff            TRAP-23              -- 
f9bb  ff            TRAP-23              -- 
f9bc  ff            TRAP-23              -- 
f9bd  ff            TRAP-23              -- 
f9be  ff            TRAP-23              -- 
f9bf  ff            TRAP-23              -- 
f9c0  ff            TRAP-23              -- 
f9c1  ff            TRAP-23              -- 
f9c2  ff            TRAP-23              -- 
f9c3  ff            TRAP-23              -- 
f9c4  ff            TRAP-23              -- 
f9c5  ff            TRAP-23              -- 
f9c6  ff            TRAP-23              -- 
f9c7  ff            TRAP-23              -- 
f9c8  ff            TRAP-23              -- 
f9c9  ff            TRAP-23              -- 
f9ca  ff            TRAP-23              -- 
f9cb  ff            TRAP-23              -- 
f9cc  ff            TRAP-23              -- 
f9cd  ff            TRAP-23              -- 
f9ce  ff            TRAP-23              -- 
f9cf  ff            TRAP-23              -- 
f9d0  ff            TRAP-23              -- 
f9d1  ff            TRAP-23              -- 
f9d2  ff            TRAP-23              -- 
f9d3  ff            TRAP-23              -- 
f9d4  ff            TRAP-23              -- 
f9d5  ff            TRAP-23              -- 
f9d6  ff            TRAP-23              -- 
f9d7  ff            TRAP-23              -- 
f9d8  ff            TRAP-23              -- 
f9d9  ff            TRAP-23              -- 
f9da  ff            TRAP-23              -- 
f9db  ff            TRAP-23              -- 
f9dc  ff            TRAP-23              -- 
f9dd  ff            TRAP-23              -- 
f9de  ff            TRAP-23              -- 
f9df  ff            TRAP-23              -- 
f9e0  ff            TRAP-23              -- 
f9e1  ff            TRAP-23              -- 
f9e2  ff            TRAP-23              -- 
f9e3  ff            TRAP-23              -- 
f9e4  ff            TRAP-23              -- 
f9e5  ff            TRAP-23              -- 
f9e6  ff            TRAP-23              -- 
f9e7  ff            TRAP-23              -- 
f9e8  ff            TRAP-23              -- 
f9e9  ff            TRAP-23              -- 
f9ea  ff            TRAP-23              -- 
f9eb  ff            TRAP-23              -- 
f9ec  ff            TRAP-23              -- 
f9ed  ff            TRAP-23              -- 
f9ee  ff            TRAP-23              -- 
f9ef  ff            TRAP-23              -- 
f9f0  ff            TRAP-23              -- 
f9f1  ff            TRAP-23              -- 
f9f2  ff            TRAP-23              -- 
f9f3  ff            TRAP-23              -- 
f9f4  ff            TRAP-23              -- 
f9f5  ff            TRAP-23              -- 
f9f6  ff            TRAP-23              -- 
f9f7  ff            TRAP-23              -- 
f9f8  ff            TRAP-23              -- 
f9f9  ff            TRAP-23              -- 
f9fa  ff            TRAP-23              -- 
f9fb  ff            TRAP-23              -- 
f9fc  ff            TRAP-23              -- 
f9fd  ff            TRAP-23              -- 
f9fe  ff            TRAP-23              -- 
f9ff  ff            TRAP-23              -- 
fa00  ff            TRAP-23              -- 
fa01  ff            TRAP-23              -- 
fa02  ff            TRAP-23              -- 
fa03  ff            TRAP-23              -- 
fa04  ff            TRAP-23              -- 
fa05  ff            TRAP-23              -- 
fa06  ff            TRAP-23              -- 
fa07  ff            TRAP-23              -- 
fa08  ff            TRAP-23              -- 
fa09  ff            TRAP-23              -- 
fa0a  ff            TRAP-23              -- 
fa0b  ff            TRAP-23              -- 
fa0c  ff            TRAP-23              -- 
fa0d  ff            TRAP-23              -- 
fa0e  ff            TRAP-23              -- 
fa0f  ff            TRAP-23              -- 
fa10  ff            TRAP-23              -- 
fa11  ff            TRAP-23              -- 
fa12  ff            TRAP-23              -- 
fa13  ff            TRAP-23              -- 
fa14  ff            TRAP-23              -- 
fa15  ff            TRAP-23              -- 
fa16  ff            TRAP-23              -- 
fa17  ff            TRAP-23              -- 
fa18  ff            TRAP-23              -- 
fa19  ff            TRAP-23              -- 
fa1a  ff            TRAP-23              -- 
fa1b  ff            TRAP-23              -- 
fa1c  ff            TRAP-23              -- 
fa1d  ff            TRAP-23              -- 
fa1e  ff            TRAP-23              -- 
fa1f  ff            TRAP-23              -- 
fa20  ff            TRAP-23              -- 
fa21  ff            TRAP-23              -- 
fa22  ff            TRAP-23              -- 
fa23  ff            TRAP-23              -- 
fa24  ff            TRAP-23              -- 
fa25  ff            TRAP-23              -- 
fa26  ff            TRAP-23              -- 
fa27  ff            TRAP-23              -- 
fa28  ff            TRAP-23              -- 
fa29  ff            TRAP-23              -- 
fa2a  ff            TRAP-23              -- 
fa2b  ff            TRAP-23              -- 
fa2c  ff            TRAP-23              -- 
fa2d  ff            TRAP-23              -- 
fa2e  ff            TRAP-23              -- 
fa2f  ff            TRAP-23              -- 
fa30  ff            TRAP-23              -- 
fa31  ff            TRAP-23              -- 
fa32  ff            TRAP-23              -- 
fa33  ff            TRAP-23              -- 
fa34  ff            TRAP-23              -- 
fa35  ff            TRAP-23              -- 
fa36  ff            TRAP-23              -- 
fa37  ff            TRAP-23              -- 
fa38  ff            TRAP-23              -- 
fa39  ff            TRAP-23              -- 
fa3a  ff            TRAP-23              -- 
fa3b  ff            TRAP-23              -- 
fa3c  ff            TRAP-23              -- 
fa3d  ff            TRAP-23              -- 
fa3e  ff            TRAP-23              -- 
fa3f  ff            TRAP-23              -- 
fa40  ff            TRAP-23              -- 
fa41  ff            TRAP-23              -- 
fa42  ff            TRAP-23              -- 
fa43  ff            TRAP-23              -- 
fa44  ff            TRAP-23              -- 
fa45  ff            TRAP-23              -- 
fa46  ff            TRAP-23              -- 
fa47  ff            TRAP-23              -- 
fa48  ff            TRAP-23              -- 
fa49  ff            TRAP-23              -- 
fa4a  ff            TRAP-23              -- 
fa4b  ff            TRAP-23              -- 
fa4c  ff            TRAP-23              -- 
fa4d  ff            TRAP-23              -- 
fa4e  ff            TRAP-23              -- 
fa4f  ff            TRAP-23              -- 
fa50  ff            TRAP-23              -- 
fa51  ff            TRAP-23              -- 
fa52  ff            TRAP-23              -- 
fa53  ff            TRAP-23              -- 
fa54  ff            TRAP-23              -- 
fa55  ff            TRAP-23              -- 
fa56  ff            TRAP-23              -- 
fa57  ff            TRAP-23              -- 
fa58  ff            TRAP-23              -- 
fa59  ff            TRAP-23              -- 
fa5a  ff            TRAP-23              -- 
fa5b  ff            TRAP-23              -- 
fa5c  ff            TRAP-23              -- 
fa5d  ff            TRAP-23              -- 
fa5e  ff            TRAP-23              -- 
fa5f  ff            TRAP-23              -- 
fa60  ff            TRAP-23              -- 
fa61  ff            TRAP-23              -- 
fa62  ff            TRAP-23              -- 
fa63  ff            TRAP-23              -- 
fa64  ff            TRAP-23              -- 
fa65  ff            TRAP-23              -- 
fa66  ff            TRAP-23              -- 
fa67  ff            TRAP-23              -- 
fa68  ff            TRAP-23              -- 
fa69  ff            TRAP-23              -- 
fa6a  ff            TRAP-23              -- 
fa6b  ff            TRAP-23              -- 
fa6c  ff            TRAP-23              -- 
fa6d  ff            TRAP-23              -- 
fa6e  ff            TRAP-23              -- 
fa6f  ff            TRAP-23              -- 
fa70  ff            TRAP-23              -- 
fa71  ff            TRAP-23              -- 
fa72  ff            TRAP-23              -- 
fa73  ff            TRAP-23              -- 
fa74  ff            TRAP-23              -- 
fa75  ff            TRAP-23              -- 
fa76  ff            TRAP-23              -- 
fa77  ff            TRAP-23              -- 
fa78  ff            TRAP-23              -- 
fa79  ff            TRAP-23              -- 
fa7a  ff            TRAP-23              -- 
fa7b  ff            TRAP-23              -- 
fa7c  ff            TRAP-23              -- 
fa7d  ff            TRAP-23              -- 
fa7e  ff            TRAP-23              -- 
fa7f  ff            TRAP-23              -- 
fa80  ff            TRAP-23              -- 
fa81  ff            TRAP-23              -- 
fa82  ff            TRAP-23              -- 
fa83  ff            TRAP-23              -- 
fa84  ff            TRAP-23              -- 
fa85  ff            TRAP-23              -- 
fa86  ff            TRAP-23              -- 
fa87  ff            TRAP-23              -- 
fa88  ff            TRAP-23              -- 
fa89  ff            TRAP-23              -- 
fa8a  ff            TRAP-23              -- 
fa8b  ff            TRAP-23              -- 
fa8c  ff            TRAP-23              -- 
fa8d  ff            TRAP-23              -- 
fa8e  ff            TRAP-23              -- 
fa8f  ff            TRAP-23              -- 
fa90  ff            TRAP-23              -- 
fa91  ff            TRAP-23              -- 
fa92  ff            TRAP-23              -- 
fa93  ff            TRAP-23              -- 
fa94  ff            TRAP-23              -- 
fa95  ff            TRAP-23              -- 
fa96  ff            TRAP-23              -- 
fa97  ff            TRAP-23              -- 
fa98  ff            TRAP-23              -- 
fa99  ff            TRAP-23              -- 
fa9a  ff            TRAP-23              -- 
fa9b  ff            TRAP-23              -- 
fa9c  ff            TRAP-23              -- 
fa9d  ff            TRAP-23              -- 
fa9e  ff            TRAP-23              -- 
fa9f  ff            TRAP-23              -- 
faa0  ff            TRAP-23              -- 
faa1  ff            TRAP-23              -- 
faa2  ff            TRAP-23              -- 
faa3  ff            TRAP-23              -- 
faa4  ff            TRAP-23              -- 
faa5  ff            TRAP-23              -- 
faa6  ff            TRAP-23              -- 
faa7  ff            TRAP-23              -- 
faa8  ff            TRAP-23              -- 
faa9  ff            TRAP-23              -- 
faaa  ff            TRAP-23              -- 
faab  ff            TRAP-23              -- 
faac  ff            TRAP-23              -- 
faad  ff            TRAP-23              -- 
faae  ff            TRAP-23              -- 
faaf  ff            TRAP-23              -- 
fab0  ff            TRAP-23              -- 
fab1  ff            TRAP-23              -- 
fab2  ff            TRAP-23              -- 
fab3  ff            TRAP-23              -- 
fab4  ff            TRAP-23              -- 
fab5  ff            TRAP-23              -- 
fab6  ff            TRAP-23              -- 
fab7  ff            TRAP-23              -- 
fab8  ff            TRAP-23              -- 
fab9  ff            TRAP-23              -- 
faba  ff            TRAP-23              -- 
fabb  ff            TRAP-23              -- 
fabc  ff            TRAP-23              -- 
fabd  ff            TRAP-23              -- 
fabe  ff            TRAP-23              -- 
fabf  ff            TRAP-23              -- 
fac0  ff            TRAP-23              -- 
fac1  ff            TRAP-23              -- 
fac2  ff            TRAP-23              -- 
fac3  ff            TRAP-23              -- 
fac4  ff            TRAP-23              -- 
fac5  ff            TRAP-23              -- 
fac6  ff            TRAP-23              -- 
fac7  ff            TRAP-23              -- 
fac8  ff            TRAP-23              -- 
fac9  ff            TRAP-23              -- 
faca  ff            TRAP-23              -- 
facb  ff            TRAP-23              -- 
facc  ff            TRAP-23              -- 
facd  ff            TRAP-23              -- 
face  ff            TRAP-23              -- 
facf  ff            TRAP-23              -- 
fad0  ff            TRAP-23              -- 
fad1  ff            TRAP-23              -- 
fad2  ff            TRAP-23              -- 
fad3  ff            TRAP-23              -- 
fad4  ff            TRAP-23              -- 
fad5  ff            TRAP-23              -- 
fad6  ff            TRAP-23              -- 
fad7  ff            TRAP-23              -- 
fad8  ff            TRAP-23              -- 
fad9  ff            TRAP-23              -- 
fada  ff            TRAP-23              -- 
fadb  ff            TRAP-23              -- 
fadc  ff            TRAP-23              -- 
fadd  ff            TRAP-23              -- 
fade  ff            TRAP-23              -- 
fadf  ff            TRAP-23              -- 
fae0  ff            TRAP-23              -- 
fae1  ff            TRAP-23              -- 
fae2  ff            TRAP-23              -- 
fae3  ff            TRAP-23              -- 
fae4  ff            TRAP-23              -- 
fae5  ff            TRAP-23              -- 
fae6  ff            TRAP-23              -- 
fae7  ff            TRAP-23              -- 
fae8  ff            TRAP-23              -- 
fae9  ff            TRAP-23              -- 
faea  ff            TRAP-23              -- 
faeb  ff            TRAP-23              -- 
faec  ff            TRAP-23              -- 
faed  ff            TRAP-23              -- 
faee  ff            TRAP-23              -- 
faef  ff            TRAP-23              -- 
faf0  ff            TRAP-23              -- 
faf1  ff            TRAP-23              -- 
faf2  ff            TRAP-23              -- 
faf3  ff            TRAP-23              -- 
faf4  ff            TRAP-23              -- 
faf5  ff            TRAP-23              -- 
faf6  ff            TRAP-23              -- 
faf7  ff            TRAP-23              -- 
faf8  ff            TRAP-23              -- 
faf9  ff            TRAP-23              -- 
fafa  ff            TRAP-23              -- 
fafb  ff            TRAP-23              -- 
fafc  ff            TRAP-23              -- 
fafd  ff            TRAP-23              -- 
fafe  ff            TRAP-23              -- 
faff  ff            TRAP-23              -- 
fb00  ff            TRAP-23              -- 
fb01  ff            TRAP-23              -- 
fb02  ff            TRAP-23              -- 
fb03  ff            TRAP-23              -- 
fb04  ff            TRAP-23              -- 
fb05  ff            TRAP-23              -- 
fb06  ff            TRAP-23              -- 
fb07  ff            TRAP-23              -- 
fb08  ff            TRAP-23              -- 
fb09  ff            TRAP-23              -- 
fb0a  ff            TRAP-23              -- 
fb0b  ff            TRAP-23              -- 
fb0c  ff            TRAP-23              -- 
fb0d  ff            TRAP-23              -- 
fb0e  ff            TRAP-23              -- 
fb0f  ff            TRAP-23              -- 
fb10  ff            TRAP-23              -- 
fb11  ff            TRAP-23              -- 
fb12  ff            TRAP-23              -- 
fb13  ff            TRAP-23              -- 
fb14  ff            TRAP-23              -- 
fb15  ff            TRAP-23              -- 
fb16  ff            TRAP-23              -- 
fb17  ff            TRAP-23              -- 
fb18  ff            TRAP-23              -- 
fb19  ff            TRAP-23              -- 
fb1a  ff            TRAP-23              -- 
fb1b  ff            TRAP-23              -- 
fb1c  ff            TRAP-23              -- 
fb1d  ff            TRAP-23              -- 
fb1e  ff            TRAP-23              -- 
fb1f  ff            TRAP-23              -- 
fb20  ff            TRAP-23              -- 
fb21  ff            TRAP-23              -- 
fb22  ff            TRAP-23              -- 
fb23  ff            TRAP-23              -- 
fb24  ff            TRAP-23              -- 
fb25  ff            TRAP-23              -- 
fb26  ff            TRAP-23              -- 
fb27  ff            TRAP-23              -- 
fb28  ff            TRAP-23              -- 
fb29  ff            TRAP-23              -- 
fb2a  ff            TRAP-23              -- 
fb2b  ff            TRAP-23              -- 
fb2c  ff            TRAP-23              -- 
fb2d  ff            TRAP-23              -- 
fb2e  ff            TRAP-23              -- 
fb2f  ff            TRAP-23              -- 
fb30  ff            TRAP-23              -- 
fb31  ff            TRAP-23              -- 
fb32  ff            TRAP-23              -- 
fb33  ff            TRAP-23              -- 
fb34  ff            TRAP-23              -- 
fb35  ff            TRAP-23              -- 
fb36  ff            TRAP-23              -- 
fb37  ff            TRAP-23              -- 
fb38  ff            TRAP-23              -- 
fb39  ff            TRAP-23              -- 
fb3a  ff            TRAP-23              -- 
fb3b  ff            TRAP-23              -- 
fb3c  ff            TRAP-23              -- 
fb3d  ff            TRAP-23              -- 
fb3e  ff            TRAP-23              -- 
fb3f  ff            TRAP-23              -- 
fb40  ff            TRAP-23              -- 
fb41  ff            TRAP-23              -- 
fb42  ff            TRAP-23              -- 
fb43  ff            TRAP-23              -- 
fb44  ff            TRAP-23              -- 
fb45  ff            TRAP-23              -- 
fb46  ff            TRAP-23              -- 
fb47  ff            TRAP-23              -- 
fb48  ff            TRAP-23              -- 
fb49  ff            TRAP-23              -- 
fb4a  ff            TRAP-23              -- 
fb4b  ff            TRAP-23              -- 
fb4c  ff            TRAP-23              -- 
fb4d  ff            TRAP-23              -- 
fb4e  ff            TRAP-23              -- 
fb4f  ff            TRAP-23              -- 
fb50  ff            TRAP-23              -- 
fb51  ff            TRAP-23              -- 
fb52  ff            TRAP-23              -- 
fb53  ff            TRAP-23              -- 
fb54  ff            TRAP-23              -- 
fb55  ff            TRAP-23              -- 
fb56  ff            TRAP-23              -- 
fb57  ff            TRAP-23              -- 
fb58  ff            TRAP-23              -- 
fb59  ff            TRAP-23              -- 
fb5a  ff            TRAP-23              -- 
fb5b  ff            TRAP-23              -- 
fb5c  ff            TRAP-23              -- 
fb5d  ff            TRAP-23              -- 
fb5e  ff            TRAP-23              -- 
fb5f  ff            TRAP-23              -- 
fb60  ff            TRAP-23              -- 
fb61  ff            TRAP-23              -- 
fb62  ff            TRAP-23              -- 
fb63  ff            TRAP-23              -- 
fb64  ff            TRAP-23              -- 
fb65  ff            TRAP-23              -- 
fb66  ff            TRAP-23              -- 
fb67  ff            TRAP-23              -- 
fb68  ff            TRAP-23              -- 
fb69  ff            TRAP-23              -- 
fb6a  ff            TRAP-23              -- 
fb6b  ff            TRAP-23              -- 
fb6c  ff            TRAP-23              -- 
fb6d  ff            TRAP-23              -- 
fb6e  ff            TRAP-23              -- 
fb6f  ff            TRAP-23              -- 
fb70  ff            TRAP-23              -- 
fb71  ff            TRAP-23              -- 
fb72  ff            TRAP-23              -- 
fb73  ff            TRAP-23              -- 
fb74  ff            TRAP-23              -- 
fb75  ff            TRAP-23              -- 
fb76  ff            TRAP-23              -- 
fb77  ff            TRAP-23              -- 
fb78  ff            TRAP-23              -- 
fb79  ff            TRAP-23              -- 
fb7a  ff            TRAP-23              -- 
fb7b  ff            TRAP-23              -- 
fb7c  ff            TRAP-23              -- 
fb7d  ff            TRAP-23              -- 
fb7e  ff            TRAP-23              -- 
fb7f  ff            TRAP-23              -- 
fb80  ff            TRAP-23              -- 
fb81  ff            TRAP-23              -- 
fb82  ff            TRAP-23              -- 
fb83  ff            TRAP-23              -- 
fb84  ff            TRAP-23              -- 
fb85  ff            TRAP-23              -- 
fb86  ff            TRAP-23              -- 
fb87  ff            TRAP-23              -- 
fb88  ff            TRAP-23              -- 
fb89  ff            TRAP-23              -- 
fb8a  ff            TRAP-23              -- 
fb8b  ff            TRAP-23              -- 
fb8c  ff            TRAP-23              -- 
fb8d  ff            TRAP-23              -- 
fb8e  ff            TRAP-23              -- 
fb8f  ff            TRAP-23              -- 
fb90  ff            TRAP-23              -- 
fb91  ff            TRAP-23              -- 
fb92  ff            TRAP-23              -- 
fb93  ff            TRAP-23              -- 
fb94  ff            TRAP-23              -- 
fb95  ff            TRAP-23              -- 
fb96  ff            TRAP-23              -- 
fb97  ff            TRAP-23              -- 
fb98  ff            TRAP-23              -- 
fb99  ff            TRAP-23              -- 
fb9a  ff            TRAP-23              -- 
fb9b  ff            TRAP-23              -- 
fb9c  ff            TRAP-23              -- 
fb9d  ff            TRAP-23              -- 
fb9e  ff            TRAP-23              -- 
fb9f  ff            TRAP-23              -- 
fba0  ff            TRAP-23              -- 
fba1  ff            TRAP-23              -- 
fba2  ff            TRAP-23              -- 
fba3  ff            TRAP-23              -- 
fba4  ff            TRAP-23              -- 
fba5  ff            TRAP-23              -- 
fba6  ff            TRAP-23              -- 
fba7  ff            TRAP-23              -- 
fba8  ff            TRAP-23              -- 
fba9  ff            TRAP-23              -- 
fbaa  ff            TRAP-23              -- 
fbab  ff            TRAP-23              -- 
fbac  ff            TRAP-23              -- 
fbad  ff            TRAP-23              -- 
fbae  ff            TRAP-23              -- 
fbaf  ff            TRAP-23              -- 
fbb0  ff            TRAP-23              -- 
fbb1  ff            TRAP-23              -- 
fbb2  ff            TRAP-23              -- 
fbb3  ff            TRAP-23              -- 
fbb4  ff            TRAP-23              -- 
fbb5  ff            TRAP-23              -- 
fbb6  ff            TRAP-23              -- 
fbb7  ff            TRAP-23              -- 
fbb8  ff            TRAP-23              -- 
fbb9  ff            TRAP-23              -- 
fbba  ff            TRAP-23              -- 
fbbb  ff            TRAP-23              -- 
fbbc  ff            TRAP-23              -- 
fbbd  ff            TRAP-23              -- 
fbbe  ff            TRAP-23              -- 
fbbf  ff            TRAP-23              -- 
fbc0  ff            TRAP-23              -- 
fbc1  ff            TRAP-23              -- 
fbc2  ff            TRAP-23              -- 
fbc3  ff            TRAP-23              -- 
fbc4  ff            TRAP-23              -- 
fbc5  ff            TRAP-23              -- 
fbc6  ff            TRAP-23              -- 
fbc7  ff            TRAP-23              -- 
fbc8  ff            TRAP-23              -- 
fbc9  ff            TRAP-23              -- 
fbca  ff            TRAP-23              -- 
fbcb  ff            TRAP-23              -- 
fbcc  ff            TRAP-23              -- 
fbcd  ff            TRAP-23              -- 
fbce  ff            TRAP-23              -- 
fbcf  ff            TRAP-23              -- 
fbd0  ff            TRAP-23              -- 
fbd1  ff            TRAP-23              -- 
fbd2  ff            TRAP-23              -- 
fbd3  ff            TRAP-23              -- 
fbd4  ff            TRAP-23              -- 
fbd5  ff            TRAP-23              -- 
fbd6  ff            TRAP-23              -- 
fbd7  ff            TRAP-23              -- 
fbd8  ff            TRAP-23              -- 
fbd9  ff            TRAP-23              -- 
fbda  ff            TRAP-23              -- 
fbdb  ff            TRAP-23              -- 
fbdc  ff            TRAP-23              -- 
fbdd  ff            TRAP-23              -- 
fbde  ff            TRAP-23              -- 
fbdf  ff            TRAP-23              -- 
fbe0  ff            TRAP-23              -- 
fbe1  ff            TRAP-23              -- 
fbe2  ff            TRAP-23              -- 
fbe3  ff            TRAP-23              -- 
fbe4  ff            TRAP-23              -- 
fbe5  ff            TRAP-23              -- 
fbe6  ff            TRAP-23              -- 
fbe7  ff            TRAP-23              -- 
fbe8  ff            TRAP-23              -- 
fbe9  ff            TRAP-23              -- 
fbea  ff            TRAP-23              -- 
fbeb  ff            TRAP-23              -- 
fbec  ff            TRAP-23              -- 
fbed  ff            TRAP-23              -- 
fbee  ff            TRAP-23              -- 
fbef  ff            TRAP-23              -- 
fbf0  ff            TRAP-23              -- 
fbf1  ff            TRAP-23              -- 
fbf2  ff            TRAP-23              -- 
fbf3  ff            TRAP-23              -- 
fbf4  ff            TRAP-23              -- 
fbf5  ff            TRAP-23              -- 
fbf6  ff            TRAP-23              -- 
fbf7  ff            TRAP-23              -- 
fbf8  ff            TRAP-23              -- 
fbf9  ff            TRAP-23              -- 
fbfa  ff            TRAP-23              -- 
fbfb  ff            TRAP-23              -- 
fbfc  ff            TRAP-23              -- 
fbfd  ff            TRAP-23              -- 
fbfe  ff            TRAP-23              -- 
fbff  ff            TRAP-23              -- 
fc00  ff            TRAP-23              -- 
fc01  ff            TRAP-23              -- 
fc02  ff            TRAP-23              -- 
fc03  ff            TRAP-23              -- 
fc04  ff            TRAP-23              -- 
fc05  ff            TRAP-23              -- 
fc06  ff            TRAP-23              -- 
fc07  ff            TRAP-23              -- 
fc08  ff            TRAP-23              -- 
fc09  ff            TRAP-23              -- 
fc0a  ff            TRAP-23              -- 
fc0b  ff            TRAP-23              -- 
fc0c  ff            TRAP-23              -- 
fc0d  ff            TRAP-23              -- 
fc0e  ff            TRAP-23              -- 
fc0f  ff            TRAP-23              -- 
fc10  ff            TRAP-23              -- 
fc11  ff            TRAP-23              -- 
fc12  ff            TRAP-23              -- 
fc13  ff            TRAP-23              -- 
fc14  ff            TRAP-23              -- 
fc15  ff            TRAP-23              -- 
fc16  ff            TRAP-23              -- 
fc17  ff            TRAP-23              -- 
fc18  ff            TRAP-23              -- 
fc19  ff            TRAP-23              -- 
fc1a  ff            TRAP-23              -- 
fc1b  ff            TRAP-23              -- 
fc1c  ff            TRAP-23              -- 
fc1d  ff            TRAP-23              -- 
fc1e  ff            TRAP-23              -- 
fc1f  ff            TRAP-23              -- 
fc20  ff            TRAP-23              -- 
fc21  ff            TRAP-23              -- 
fc22  ff            TRAP-23              -- 
fc23  ff            TRAP-23              -- 
fc24  ff            TRAP-23              -- 
fc25  ff            TRAP-23              -- 
fc26  ff            TRAP-23              -- 
fc27  ff            TRAP-23              -- 
fc28  ff            TRAP-23              -- 
fc29  ff            TRAP-23              -- 
fc2a  ff            TRAP-23              -- 
fc2b  ff            TRAP-23              -- 
fc2c  ff            TRAP-23              -- 
fc2d  ff            TRAP-23              -- 
fc2e  ff            TRAP-23              -- 
fc2f  ff            TRAP-23              -- 
fc30  ff            TRAP-23              -- 
fc31  ff            TRAP-23              -- 
fc32  ff            TRAP-23              -- 
fc33  ff            TRAP-23              -- 
fc34  ff            TRAP-23              -- 
fc35  ff            TRAP-23              -- 
fc36  ff            TRAP-23              -- 
fc37  ff            TRAP-23              -- 
fc38  ff            TRAP-23              -- 
fc39  ff            TRAP-23              -- 
fc3a  ff            TRAP-23              -- 
fc3b  ff            TRAP-23              -- 
fc3c  ff            TRAP-23              -- 
fc3d  ff            TRAP-23              -- 
fc3e  ff            TRAP-23              -- 
fc3f  ff            TRAP-23              -- 
fc40  ff            TRAP-23              -- 
fc41  ff            TRAP-23              -- 
fc42  ff            TRAP-23              -- 
fc43  ff            TRAP-23              -- 
fc44  ff            TRAP-23              -- 
fc45  ff            TRAP-23              -- 
fc46  ff            TRAP-23              -- 
fc47  ff            TRAP-23              -- 
fc48  ff            TRAP-23              -- 
fc49  ff            TRAP-23              -- 
fc4a  ff            TRAP-23              -- 
fc4b  ff            TRAP-23              -- 
fc4c  ff            TRAP-23              -- 
fc4d  ff            TRAP-23              -- 
fc4e  ff            TRAP-23              -- 
fc4f  ff            TRAP-23              -- 
fc50  ff            TRAP-23              -- 
fc51  ff            TRAP-23              -- 
fc52  ff            TRAP-23              -- 
fc53  ff            TRAP-23              -- 
fc54  ff            TRAP-23              -- 
fc55  ff            TRAP-23              -- 
fc56  ff            TRAP-23              -- 
fc57  ff            TRAP-23              -- 
fc58  ff            TRAP-23              -- 
fc59  ff            TRAP-23              -- 
fc5a  ff            TRAP-23              -- 
fc5b  ff            TRAP-23              -- 
fc5c  ff            TRAP-23              -- 
fc5d  ff            TRAP-23              -- 
fc5e  ff            TRAP-23              -- 
fc5f  ff            TRAP-23              -- 
fc60  ff            TRAP-23              -- 
fc61  ff            TRAP-23              -- 
fc62  ff            TRAP-23              -- 
fc63  ff            TRAP-23              -- 
fc64  ff            TRAP-23              -- 
fc65  ff            TRAP-23              -- 
fc66  ff            TRAP-23              -- 
fc67  ff            TRAP-23              -- 
fc68  ff            TRAP-23              -- 
fc69  ff            TRAP-23              -- 
fc6a  ff            TRAP-23              -- 
fc6b  ff            TRAP-23              -- 
fc6c  ff            TRAP-23              -- 
fc6d  ff            TRAP-23              -- 
fc6e  ff            TRAP-23              -- 
fc6f  ff            TRAP-23              -- 
fc70  ff            TRAP-23              -- 
fc71  ff            TRAP-23              -- 
fc72  ff            TRAP-23              -- 
fc73  ff            TRAP-23              -- 
fc74  ff            TRAP-23              -- 
fc75  ff            TRAP-23              -- 
fc76  ff            TRAP-23              -- 
fc77  ff            TRAP-23              -- 
fc78  ff            TRAP-23              -- 
fc79  ff            TRAP-23              -- 
fc7a  ff            TRAP-23              -- 
fc7b  ff            TRAP-23              -- 
fc7c  ff            TRAP-23              -- 
fc7d  ff            TRAP-23              -- 
fc7e  ff            TRAP-23              -- 
fc7f  ff            TRAP-23              -- 
fc80  ff            TRAP-23              -- 
fc81  ff            TRAP-23              -- 
fc82  ff            TRAP-23              -- 
fc83  ff            TRAP-23              -- 
fc84  ff            TRAP-23              -- 
fc85  ff            TRAP-23              -- 
fc86  ff            TRAP-23              -- 
fc87  ff            TRAP-23              -- 
fc88  ff            TRAP-23              -- 
fc89  ff            TRAP-23              -- 
fc8a  ff            TRAP-23              -- 
fc8b  ff            TRAP-23              -- 
fc8c  ff            TRAP-23              -- 
fc8d  ff            TRAP-23              -- 
fc8e  ff            TRAP-23              -- 
fc8f  ff            TRAP-23              -- 
fc90  ff            TRAP-23              -- 
fc91  ff            TRAP-23              -- 
fc92  ff            TRAP-23              -- 
fc93  ff            TRAP-23              -- 
fc94  ff            TRAP-23              -- 
fc95  ff            TRAP-23              -- 
fc96  ff            TRAP-23              -- 
fc97  ff            TRAP-23              -- 
fc98  ff            TRAP-23              -- 
fc99  ff            TRAP-23              -- 
fc9a  ff            TRAP-23              -- 
fc9b  ff            TRAP-23              -- 
fc9c  ff            TRAP-23              -- 
fc9d  ff            TRAP-23              -- 
fc9e  ff            TRAP-23              -- 
fc9f  ff            TRAP-23              -- 
fca0  ff            TRAP-23              -- 
fca1  ff            TRAP-23              -- 
fca2  ff            TRAP-23              -- 
fca3  ff            TRAP-23              -- 
fca4  ff            TRAP-23              -- 
fca5  ff            TRAP-23              -- 
fca6  ff            TRAP-23              -- 
fca7  ff            TRAP-23              -- 
fca8  ff            TRAP-23              -- 
fca9  ff            TRAP-23              -- 
fcaa  ff            TRAP-23              -- 
fcab  ff            TRAP-23              -- 
fcac  ff            TRAP-23              -- 
fcad  ff            TRAP-23              -- 
fcae  ff            TRAP-23              -- 
fcaf  ff            TRAP-23              -- 
fcb0  ff            TRAP-23              -- 
fcb1  ff            TRAP-23              -- 
fcb2  ff            TRAP-23              -- 
fcb3  ff            TRAP-23              -- 
fcb4  ff            TRAP-23              -- 
fcb5  ff            TRAP-23              -- 
fcb6  ff            TRAP-23              -- 
fcb7  ff            TRAP-23              -- 
fcb8  ff            TRAP-23              -- 
fcb9  ff            TRAP-23              -- 
fcba  ff            TRAP-23              -- 
fcbb  ff            TRAP-23              -- 
fcbc  ff            TRAP-23              -- 
fcbd  ff            TRAP-23              -- 
fcbe  ff            TRAP-23              -- 
fcbf  ff            TRAP-23              -- 
fcc0  ff            TRAP-23              -- 
fcc1  ff            TRAP-23              -- 
fcc2  ff            TRAP-23              -- 
fcc3  ff            TRAP-23              -- 
fcc4  ff            TRAP-23              -- 
fcc5  ff            TRAP-23              -- 
fcc6  ff            TRAP-23              -- 
fcc7  ff            TRAP-23              -- 
fcc8  ff            TRAP-23              -- 
fcc9  ff            TRAP-23              -- 
fcca  ff            TRAP-23              -- 
fccb  ff            TRAP-23              -- 
fccc  ff            TRAP-23              -- 
fccd  ff            TRAP-23              -- 
fcce  ff            TRAP-23              -- 
fccf  ff            TRAP-23              -- 
fcd0  ff            TRAP-23              -- 
fcd1  ff            TRAP-23              -- 
fcd2  ff            TRAP-23              -- 
fcd3  ff            TRAP-23              -- 
fcd4  ff            TRAP-23              -- 
fcd5  ff            TRAP-23              -- 
fcd6  ff            TRAP-23              -- 
fcd7  ff            TRAP-23              -- 
fcd8  ff            TRAP-23              -- 
fcd9  ff            TRAP-23              -- 
fcda  ff            TRAP-23              -- 
fcdb  ff            TRAP-23              -- 
fcdc  ff            TRAP-23              -- 
fcdd  ff            TRAP-23              -- 
fcde  ff            TRAP-23              -- 
fcdf  ff            TRAP-23              -- 
fce0  ff            TRAP-23              -- 
fce1  ff            TRAP-23              -- 
fce2  ff            TRAP-23              -- 
fce3  ff            TRAP-23              -- 
fce4  ff            TRAP-23              -- 
fce5  ff            TRAP-23              -- 
fce6  ff            TRAP-23              -- 
fce7  ff            TRAP-23              -- 
fce8  ff            TRAP-23              -- 
fce9  ff            TRAP-23              -- 
fcea  ff            TRAP-23              -- 
fceb  ff            TRAP-23              -- 
fcec  ff            TRAP-23              -- 
fced  ff            TRAP-23              -- 
fcee  ff            TRAP-23              -- 
fcef  ff            TRAP-23              -- 
fcf0  ff            TRAP-23              -- 
fcf1  ff            TRAP-23              -- 
fcf2  ff            TRAP-23              -- 
fcf3  ff            TRAP-23              -- 
fcf4  ff            TRAP-23              -- 
fcf5  ff            TRAP-23              -- 
fcf6  ff            TRAP-23              -- 
fcf7  ff            TRAP-23              -- 
fcf8  ff            TRAP-23              -- 
fcf9  ff            TRAP-23              -- 
fcfa  ff            TRAP-23              -- 
fcfb  ff            TRAP-23              -- 
fcfc  ff            TRAP-23              -- 
fcfd  ff            TRAP-23              -- 
fcfe  ff            TRAP-23              -- 
fcff  ff            TRAP-23              -- 
fd00  ff            TRAP-23              -- 
fd01  ff            TRAP-23              -- 
fd02  ff            TRAP-23              -- 
fd03  ff            TRAP-23              -- 
fd04  ff            TRAP-23              -- 
fd05  ff            TRAP-23              -- 
fd06  ff            TRAP-23              -- 
fd07  ff            TRAP-23              -- 
fd08  ff            TRAP-23              -- 
fd09  ff            TRAP-23              -- 
fd0a  ff            TRAP-23              -- 
fd0b  ff            TRAP-23              -- 
fd0c  ff            TRAP-23              -- 
fd0d  ff            TRAP-23              -- 
fd0e  ff            TRAP-23              -- 
fd0f  ff            TRAP-23              -- 
fd10  ff            TRAP-23              -- 
fd11  ff            TRAP-23              -- 
fd12  ff            TRAP-23              -- 
fd13  ff            TRAP-23              -- 
fd14  ff            TRAP-23              -- 
fd15  ff            TRAP-23              -- 
fd16  ff            TRAP-23              -- 
fd17  ff            TRAP-23              -- 
fd18  ff            TRAP-23              -- 
fd19  ff            TRAP-23              -- 
fd1a  ff            TRAP-23              -- 
fd1b  ff            TRAP-23              -- 
fd1c  ff            TRAP-23              -- 
fd1d  ff            TRAP-23              -- 
fd1e  ff            TRAP-23              -- 
fd1f  ff            TRAP-23              -- 
fd20  ff            TRAP-23              -- 
fd21  ff            TRAP-23              -- 
fd22  ff            TRAP-23              -- 
fd23  ff            TRAP-23              -- 
fd24  ff            TRAP-23              -- 
fd25  ff            TRAP-23              -- 
fd26  ff            TRAP-23              -- 
fd27  ff            TRAP-23              -- 
fd28  ff            TRAP-23              -- 
fd29  ff            TRAP-23              -- 
fd2a  ff            TRAP-23              -- 
fd2b  ff            TRAP-23              -- 
fd2c  ff            TRAP-23              -- 
fd2d  ff            TRAP-23              -- 
fd2e  ff            TRAP-23              -- 
fd2f  ff            TRAP-23              -- 
fd30  ff            TRAP-23              -- 
fd31  ff            TRAP-23              -- 
fd32  ff            TRAP-23              -- 
fd33  ff            TRAP-23              -- 
fd34  ff            TRAP-23              -- 
fd35  ff            TRAP-23              -- 
fd36  ff            TRAP-23              -- 
fd37  ff            TRAP-23              -- 
fd38  ff            TRAP-23              -- 
fd39  ff            TRAP-23              -- 
fd3a  ff            TRAP-23              -- 
fd3b  ff            TRAP-23              -- 
fd3c  ff            TRAP-23              -- 
fd3d  ff            TRAP-23              -- 
fd3e  ff            TRAP-23              -- 
fd3f  ff            TRAP-23              -- 
fd40  ff            TRAP-23              -- 
fd41  ff            TRAP-23              -- 
fd42  ff            TRAP-23              -- 
fd43  ff            TRAP-23              -- 
fd44  ff            TRAP-23              -- 
fd45  ff            TRAP-23              -- 
fd46  ff            TRAP-23              -- 
fd47  ff            TRAP-23              -- 
fd48  ff            TRAP-23              -- 
fd49  ff            TRAP-23              -- 
fd4a  ff            TRAP-23              -- 
fd4b  ff            TRAP-23              -- 
fd4c  ff            TRAP-23              -- 
fd4d  ff            TRAP-23              -- 
fd4e  ff            TRAP-23              -- 
fd4f  ff            TRAP-23              -- 
fd50  ff            TRAP-23              -- 
fd51  ff            TRAP-23              -- 
fd52  ff            TRAP-23              -- 
fd53  ff            TRAP-23              -- 
fd54  ff            TRAP-23              -- 
fd55  ff            TRAP-23              -- 
fd56  ff            TRAP-23              -- 
fd57  ff            TRAP-23              -- 
fd58  ff            TRAP-23              -- 
fd59  ff            TRAP-23              -- 
fd5a  ff            TRAP-23              -- 
fd5b  ff            TRAP-23              -- 
fd5c  ff            TRAP-23              -- 
fd5d  ff            TRAP-23              -- 
fd5e  ff            TRAP-23              -- 
fd5f  ff            TRAP-23              -- 
fd60  ff            TRAP-23              -- 
fd61  ff            TRAP-23              -- 
fd62  ff            TRAP-23              -- 
fd63  ff            TRAP-23              -- 
fd64  ff            TRAP-23              -- 
fd65  ff            TRAP-23              -- 
fd66  ff            TRAP-23              -- 
fd67  ff            TRAP-23              -- 
fd68  ff            TRAP-23              -- 
fd69  ff            TRAP-23              -- 
fd6a  ff            TRAP-23              -- 
fd6b  ff            TRAP-23              -- 
fd6c  ff            TRAP-23              -- 
fd6d  ff            TRAP-23              -- 
fd6e  ff            TRAP-23              -- 
fd6f  ff            TRAP-23              -- 
fd70  ff            TRAP-23              -- 
fd71  ff            TRAP-23              -- 
fd72  ff            TRAP-23              -- 
fd73  ff            TRAP-23              -- 
fd74  ff            TRAP-23              -- 
fd75  ff            TRAP-23              -- 
fd76  ff            TRAP-23              -- 
fd77  ff            TRAP-23              -- 
fd78  ff            TRAP-23              -- 
fd79  ff            TRAP-23              -- 
fd7a  ff            TRAP-23              -- 
fd7b  ff            TRAP-23              -- 
fd7c  ff            TRAP-23              -- 
fd7d  ff            TRAP-23              -- 
fd7e  ff            TRAP-23              -- 
fd7f  ff            TRAP-23              -- 
fd80  ff            TRAP-23              -- 
fd81  ff            TRAP-23              -- 
fd82  ff            TRAP-23              -- 
fd83  ff            TRAP-23              -- 
fd84  ff            TRAP-23              -- 
fd85  ff            TRAP-23              -- 
fd86  ff            TRAP-23              -- 
fd87  ff            TRAP-23              -- 
fd88  ff            TRAP-23              -- 
fd89  ff            TRAP-23              -- 
fd8a  ff            TRAP-23              -- 
fd8b  ff            TRAP-23              -- 
fd8c  ff            TRAP-23              -- 
fd8d  ff            TRAP-23              -- 
fd8e  ff            TRAP-23              -- 
fd8f  ff            TRAP-23              -- 
fd90  ff            TRAP-23              -- 
fd91  ff            TRAP-23              -- 
fd92  ff            TRAP-23              -- 
fd93  ff            TRAP-23              -- 
fd94  ff            TRAP-23              -- 
fd95  ff            TRAP-23              -- 
fd96  ff            TRAP-23              -- 
fd97  ff            TRAP-23              -- 
fd98  ff            TRAP-23              -- 
fd99  ff            TRAP-23              -- 
fd9a  ff            TRAP-23              -- 
fd9b  ff            TRAP-23              -- 
fd9c  ff            TRAP-23              -- 
fd9d  ff            TRAP-23              -- 
fd9e  ff            TRAP-23              -- 
fd9f  ff            TRAP-23              -- 
fda0  ff            TRAP-23              -- 
fda1  ff            TRAP-23              -- 
fda2  ff            TRAP-23              -- 
fda3  ff            TRAP-23              -- 
fda4  ff            TRAP-23              -- 
fda5  ff            TRAP-23              -- 
fda6  ff            TRAP-23              -- 
fda7  ff            TRAP-23              -- 
fda8  ff            TRAP-23              -- 
fda9  ff            TRAP-23              -- 
fdaa  ff            TRAP-23              -- 
fdab  ff            TRAP-23              -- 
fdac  ff            TRAP-23              -- 
fdad  ff            TRAP-23              -- 
fdae  ff            TRAP-23              -- 
fdaf  ff            TRAP-23              -- 
fdb0  ff            TRAP-23              -- 
fdb1  ff            TRAP-23              -- 
fdb2  ff            TRAP-23              -- 
fdb3  ff            TRAP-23              -- 
fdb4  ff            TRAP-23              -- 
fdb5  ff            TRAP-23              -- 
fdb6  ff            TRAP-23              -- 
fdb7  ff            TRAP-23              -- 
fdb8  ff            TRAP-23              -- 
fdb9  ff            TRAP-23              -- 
fdba  ff            TRAP-23              -- 
fdbb  ff            TRAP-23              -- 
fdbc  ff            TRAP-23              -- 
fdbd  ff            TRAP-23              -- 
fdbe  ff            TRAP-23              -- 
fdbf  ff            TRAP-23              -- 
fdc0  ff            TRAP-23              -- 
fdc1  ff            TRAP-23              -- 
fdc2  ff            TRAP-23              -- 
fdc3  ff            TRAP-23              -- 
fdc4  ff            TRAP-23              -- 
fdc5  ff            TRAP-23              -- 
fdc6  ff            TRAP-23              -- 
fdc7  ff            TRAP-23              -- 
fdc8  ff            TRAP-23              -- 
fdc9  ff            TRAP-23              -- 
fdca  ff            TRAP-23              -- 
fdcb  ff            TRAP-23              -- 
fdcc  ff            TRAP-23              -- 
fdcd  ff            TRAP-23              -- 
fdce  ff            TRAP-23              -- 
fdcf  ff            TRAP-23              -- 
fdd0  ff            TRAP-23              -- 
fdd1  ff            TRAP-23              -- 
fdd2  ff            TRAP-23              -- 
fdd3  ff            TRAP-23              -- 
fdd4  ff            TRAP-23              -- 
fdd5  ff            TRAP-23              -- 
fdd6  ff            TRAP-23              -- 
fdd7  ff            TRAP-23              -- 
fdd8  ff            TRAP-23              -- 
fdd9  ff            TRAP-23              -- 
fdda  ff            TRAP-23              -- 
fddb  ff            TRAP-23              -- 
fddc  ff            TRAP-23              -- 
fddd  ff            TRAP-23              -- 
fdde  ff            TRAP-23              -- 
fddf  ff            TRAP-23              -- 
fde0  ff            TRAP-23              -- 
fde1  ff            TRAP-23              -- 
fde2  ff            TRAP-23              -- 
fde3  ff            TRAP-23              -- 
fde4  ff            TRAP-23              -- 
fde5  ff            TRAP-23              -- 
fde6  ff            TRAP-23              -- 
fde7  ff            TRAP-23              -- 
fde8  ff            TRAP-23              -- 
fde9  ff            TRAP-23              -- 
fdea  ff            TRAP-23              -- 
fdeb  ff            TRAP-23              -- 
fdec  ff            TRAP-23              -- 
fded  ff            TRAP-23              -- 
fdee  ff            TRAP-23              -- 
fdef  ff            TRAP-23              -- 
fdf0  ff            TRAP-23              -- 
fdf1  ff            TRAP-23              -- 
fdf2  ff            TRAP-23              -- 
fdf3  ff            TRAP-23              -- 
fdf4  ff            TRAP-23              -- 
fdf5  ff            TRAP-23              -- 
fdf6  ff            TRAP-23              -- 
fdf7  ff            TRAP-23              -- 
fdf8  ff            TRAP-23              -- 
fdf9  ff            TRAP-23              -- 
fdfa  ff            TRAP-23              -- 
fdfb  ff            TRAP-23              -- 
fdfc  ff            TRAP-23              -- 
fdfd  ff            TRAP-23              -- 
fdfe  ff            TRAP-23              -- 
fdff  ff            TRAP-23              -- 
fe00  ff            TRAP-23              -- 
fe01  ff            TRAP-23              -- 
fe02  ff            TRAP-23              -- 
fe03  ff            TRAP-23              -- 
fe04  ff            TRAP-23              -- 
fe05  ff            TRAP-23              -- 
fe06  ff            TRAP-23              -- 
fe07  ff            TRAP-23              -- 
fe08  ff            TRAP-23              -- 
fe09  ff            TRAP-23              -- 
fe0a  ff            TRAP-23              -- 
fe0b  ff            TRAP-23              -- 
fe0c  ff            TRAP-23              -- 
fe0d  ff            TRAP-23              -- 
fe0e  ff            TRAP-23              -- 
fe0f  ff            TRAP-23              -- 
fe10  ff            TRAP-23              -- 
fe11  ff            TRAP-23              -- 
fe12  ff            TRAP-23              -- 
fe13  ff            TRAP-23              -- 
fe14  ff            TRAP-23              -- 
fe15  ff            TRAP-23              -- 
fe16  ff            TRAP-23              -- 
fe17  ff            TRAP-23              -- 
fe18  ff            TRAP-23              -- 
fe19  ff            TRAP-23              -- 
fe1a  ff            TRAP-23              -- 
fe1b  ff            TRAP-23              -- 
fe1c  ff            TRAP-23              -- 
fe1d  ff            TRAP-23              -- 
fe1e  ff            TRAP-23              -- 
fe1f  ff            TRAP-23              -- 
fe20  ff            TRAP-23              -- 
fe21  ff            TRAP-23              -- 
fe22  ff            TRAP-23              -- 
fe23  ff            TRAP-23              -- 
fe24  ff            TRAP-23              -- 
fe25  ff            TRAP-23              -- 
fe26  ff            TRAP-23              -- 
fe27  ff            TRAP-23              -- 
fe28  ff            TRAP-23              -- 
fe29  ff            TRAP-23              -- 
fe2a  ff            TRAP-23              -- 
fe2b  ff            TRAP-23              -- 
fe2c  ff            TRAP-23              -- 
fe2d  ff            TRAP-23              -- 
fe2e  ff            TRAP-23              -- 
fe2f  ff            TRAP-23              -- 
fe30  ff            TRAP-23              -- 
fe31  ff            TRAP-23              -- 
fe32  ff            TRAP-23              -- 
fe33  ff            TRAP-23              -- 
fe34  ff            TRAP-23              -- 
fe35  ff            TRAP-23              -- 
fe36  ff            TRAP-23              -- 
fe37  ff            TRAP-23              -- 
fe38  ff            TRAP-23              -- 
fe39  ff            TRAP-23              -- 
fe3a  ff            TRAP-23              -- 
fe3b  ff            TRAP-23              -- 
fe3c  ff            TRAP-23              -- 
fe3d  ff            TRAP-23              -- 
fe3e  ff            TRAP-23              -- 
fe3f  ff            TRAP-23              -- 
fe40  ff            TRAP-23              -- 
fe41  ff            TRAP-23              -- 
fe42  ff            TRAP-23              -- 
fe43  ff            TRAP-23              -- 
fe44  ff            TRAP-23              -- 
fe45  ff            TRAP-23              -- 
fe46  ff            TRAP-23              -- 
fe47  ff            TRAP-23              -- 
fe48  ff            TRAP-23              -- 
fe49  ff            TRAP-23              -- 
fe4a  ff            TRAP-23              -- 
fe4b  ff            TRAP-23              -- 
fe4c  ff            TRAP-23              -- 
fe4d  ff            TRAP-23              -- 
fe4e  ff            TRAP-23              -- 
fe4f  ff            TRAP-23              -- 
fe50  ff            TRAP-23              -- 
fe51  ff            TRAP-23              -- 
fe52  ff            TRAP-23              -- 
fe53  ff            TRAP-23              -- 
fe54  ff            TRAP-23              -- 
fe55  ff            TRAP-23              -- 
fe56  ff            TRAP-23              -- 
fe57  ff            TRAP-23              -- 
fe58  ff            TRAP-23              -- 
fe59  ff            TRAP-23              -- 
fe5a  ff            TRAP-23              -- 
fe5b  ff            TRAP-23              -- 
fe5c  ff            TRAP-23              -- 
fe5d  ff            TRAP-23              -- 
fe5e  ff            TRAP-23              -- 
fe5f  ff            TRAP-23              -- 
fe60  ff            TRAP-23              -- 
fe61  ff            TRAP-23              -- 
fe62  ff            TRAP-23              -- 
fe63  ff            TRAP-23              -- 
fe64  ff            TRAP-23              -- 
fe65  ff            TRAP-23              -- 
fe66  ff            TRAP-23              -- 
fe67  ff            TRAP-23              -- 
fe68  ff            TRAP-23              -- 
fe69  ff            TRAP-23              -- 
fe6a  ff            TRAP-23              -- 
fe6b  ff            TRAP-23              -- 
fe6c  ff            TRAP-23              -- 
fe6d  ff            TRAP-23              -- 
fe6e  ff            TRAP-23              -- 
fe6f  ff            TRAP-23              -- 
fe70  ff            TRAP-23              -- 
fe71  ff            TRAP-23              -- 
fe72  ff            TRAP-23              -- 
fe73  ff            TRAP-23              -- 
fe74  ff            TRAP-23              -- 
fe75  ff            TRAP-23              -- 
fe76  ff            TRAP-23              -- 
fe77  ff            TRAP-23              -- 
fe78  ff            TRAP-23              -- 
fe79  ff            TRAP-23              -- 
fe7a  ff            TRAP-23              -- 
fe7b  ff            TRAP-23              -- 
fe7c  ff            TRAP-23              -- 
fe7d  ff            TRAP-23              -- 
fe7e  ff            TRAP-23              -- 
fe7f  ff            TRAP-23              -- 
fe80  ff            TRAP-23              -- 
fe81  ff            TRAP-23              -- 
fe82  ff            TRAP-23              -- 
fe83  ff            TRAP-23              -- 
fe84  ff            TRAP-23              -- 
fe85  ff            TRAP-23              -- 
fe86  ff            TRAP-23              -- 
fe87  ff            TRAP-23              -- 
fe88  ff            TRAP-23              -- 
fe89  ff            TRAP-23              -- 
fe8a  ff            TRAP-23              -- 
fe8b  ff            TRAP-23              -- 
fe8c  ff            TRAP-23              -- 
fe8d  ff            TRAP-23              -- 
fe8e  ff            TRAP-23              -- 
fe8f  ff            TRAP-23              -- 
fe90  ff            TRAP-23              -- 
fe91  ff            TRAP-23              -- 
fe92  ff            TRAP-23              -- 
fe93  ff            TRAP-23              -- 
fe94  ff            TRAP-23              -- 
fe95  ff            TRAP-23              -- 
fe96  ff            TRAP-23              -- 
fe97  ff            TRAP-23              -- 
fe98  ff            TRAP-23              -- 
fe99  ff            TRAP-23              -- 
fe9a  ff            TRAP-23              -- 
fe9b  ff            TRAP-23              -- 
fe9c  ff            TRAP-23              -- 
fe9d  ff            TRAP-23              -- 
fe9e  ff            TRAP-23              -- 
fe9f  ff            TRAP-23              -- 
fea0  ff            TRAP-23              -- 
fea1  ff            TRAP-23              -- 
fea2  ff            TRAP-23              -- 
fea3  ff            TRAP-23              -- 
fea4  ff            TRAP-23              -- 
fea5  ff            TRAP-23              -- 
fea6  ff            TRAP-23              -- 
fea7  ff            TRAP-23              -- 
fea8  ff            TRAP-23              -- 
fea9  ff            TRAP-23              -- 
feaa  ff            TRAP-23              -- 
feab  ff            TRAP-23              -- 
feac  ff            TRAP-23              -- 
fead  ff            TRAP-23              -- 
feae  ff            TRAP-23              -- 
feaf  ff            TRAP-23              -- 
feb0  ff            TRAP-23              -- 
feb1  ff            TRAP-23              -- 
feb2  ff            TRAP-23              -- 
feb3  ff            TRAP-23              -- 
feb4  ff            TRAP-23              -- 
feb5  ff            TRAP-23              -- 
feb6  ff            TRAP-23              -- 
feb7  ff            TRAP-23              -- 
feb8  ff            TRAP-23              -- 
feb9  ff            TRAP-23              -- 
feba  ff            TRAP-23              -- 
febb  ff            TRAP-23              -- 
febc  ff            TRAP-23              -- 
febd  ff            TRAP-23              -- 
febe  ff            TRAP-23              -- 
febf  ff            TRAP-23              -- 
fec0  ff            TRAP-23              -- 
fec1  ff            TRAP-23              -- 
fec2  ff            TRAP-23              -- 
fec3  ff            TRAP-23              -- 
fec4  ff            TRAP-23              -- 
fec5  ff            TRAP-23              -- 
fec6  ff            TRAP-23              -- 
fec7  ff            TRAP-23              -- 
fec8  ff            TRAP-23              -- 
fec9  ff            TRAP-23              -- 
feca  ff            TRAP-23              -- 
fecb  ff            TRAP-23              -- 
fecc  ff            TRAP-23              -- 
fecd  ff            TRAP-23              -- 
fece  ff            TRAP-23              -- 
fecf  ff            TRAP-23              -- 
fed0  ff            TRAP-23              -- 
fed1  ff            TRAP-23              -- 
fed2  ff            TRAP-23              -- 
fed3  ff            TRAP-23              -- 
fed4  ff            TRAP-23              -- 
fed5  ff            TRAP-23              -- 
fed6  ff            TRAP-23              -- 
fed7  ff            TRAP-23              -- 
fed8  ff            TRAP-23              -- 
fed9  ff            TRAP-23              -- 
feda  ff            TRAP-23              -- 
fedb  ff            TRAP-23              -- 
fedc  ff            TRAP-23              -- 
fedd  ff            TRAP-23              -- 
fede  ff            TRAP-23              -- 
fedf  ff            TRAP-23              -- 
fee0  ff            TRAP-23              -- 
fee1  ff            TRAP-23              -- 
fee2  ff            TRAP-23              -- 
fee3  ff            TRAP-23              -- 
fee4  ff            TRAP-23              -- 
fee5  ff            TRAP-23              -- 
fee6  ff            TRAP-23              -- 
fee7  ff            TRAP-23              -- 
fee8  ff            TRAP-23              -- 
fee9  ff            TRAP-23              -- 
feea  ff            TRAP-23              -- 
feeb  ff            TRAP-23              -- 
feec  ff            TRAP-23              -- 
feed  ff            TRAP-23              -- 
feee  ff            TRAP-23              -- 
feef  ff            TRAP-23              -- 
fef0  ff            TRAP-23              -- 
fef1  ff            TRAP-23              -- 
fef2  ff            TRAP-23              -- 
fef3  ff            TRAP-23              -- 
fef4  ff            TRAP-23              -- 
fef5  ff            TRAP-23              -- 
fef6  ff            TRAP-23              -- 
fef7  ff            TRAP-23              -- 
fef8  ff            TRAP-23              -- 
fef9  ff            TRAP-23              -- 
fefa  ff            TRAP-23              -- 
fefb  ff            TRAP-23              -- 
fefc  ff            TRAP-23              -- 
fefd  ff            TRAP-23              -- 
fefe  ff            TRAP-23              -- 
feff  ff            TRAP-23              -- 
ff00  ff            TRAP-23              -- 
ff01  ff            TRAP-23              -- 
ff02  ff            TRAP-23              -- 
ff03  ff            TRAP-23              -- 
ff04  ff            TRAP-23              -- 
ff05  ff            TRAP-23              -- 
ff06  ff            TRAP-23              -- 
ff07  ff            TRAP-23              -- 
ff08  ff            TRAP-23              -- 
ff09  ff            TRAP-23              -- 
ff0a  ff            TRAP-23              -- 
ff0b  ff            TRAP-23              -- 
ff0c  ff            TRAP-23              -- 
ff0d  ff            TRAP-23              -- 
ff0e  ff            TRAP-23              -- 
ff0f  ff            TRAP-23              -- 
ff10  ff            TRAP-23              -- 
ff11  ff            TRAP-23              -- 
ff12  ff            TRAP-23              -- 
ff13  ff            TRAP-23              -- 
ff14  ff            TRAP-23              -- 
ff15  ff            TRAP-23              -- 
ff16  ff            TRAP-23              -- 
ff17  ff            TRAP-23              -- 
ff18  ff            TRAP-23              -- 
ff19  ff            TRAP-23              -- 
ff1a  ff            TRAP-23              -- 
ff1b  ff            TRAP-23              -- 
ff1c  ff            TRAP-23              -- 
ff1d  ff            TRAP-23              -- 
ff1e  ff            TRAP-23              -- 
ff1f  ff            TRAP-23              -- 
ff20  ff            TRAP-23              -- 
ff21  ff            TRAP-23              -- 
ff22  ff            TRAP-23              -- 
ff23  ff            TRAP-23              -- 
ff24  ff            TRAP-23              -- 
ff25  ff            TRAP-23              -- 
ff26  ff            TRAP-23              -- 
ff27  ff            TRAP-23              -- 
ff28  ff            TRAP-23              -- 
ff29  ff            TRAP-23              -- 
ff2a  ff            TRAP-23              -- 
ff2b  ff            TRAP-23              -- 
ff2c  ff            TRAP-23              -- 
ff2d  ff            TRAP-23              -- 
ff2e  ff            TRAP-23              -- 
ff2f  ff            TRAP-23              -- 
ff30  ff            TRAP-23              -- 
ff31  ff            TRAP-23              -- 
ff32  ff            TRAP-23              -- 
ff33  ff            TRAP-23              -- 
ff34  ff            TRAP-23              -- 
ff35  ff            TRAP-23              -- 
ff36  ff            TRAP-23              -- 
ff37  ff            TRAP-23              -- 
ff38  ff            TRAP-23              -- 
ff39  ff            TRAP-23              -- 
ff3a  ff            TRAP-23              -- 
ff3b  ff            TRAP-23              -- 
ff3c  ff            TRAP-23              -- 
ff3d  ff            TRAP-23              -- 
ff3e  ff            TRAP-23              -- 
ff3f  ff            TRAP-23              -- 
ff40  ff            TRAP-23              -- 
ff41  ff            TRAP-23              -- 
ff42  ff            TRAP-23              -- 
ff43  ff            TRAP-23              -- 
ff44  ff            TRAP-23              -- 
ff45  ff            TRAP-23              -- 
ff46  ff            TRAP-23              -- 
ff47  ff            TRAP-23              -- 
ff48  ff            TRAP-23              -- 
ff49  ff            TRAP-23              -- 
ff4a  ff            TRAP-23              -- 
ff4b  ff            TRAP-23              -- 
ff4c  ff            TRAP-23              -- 
ff4d  ff            TRAP-23              -- 
ff4e  ff            TRAP-23              -- 
ff4f  ff            TRAP-23              -- 
ff50  ff            TRAP-23              -- 
ff51  ff            TRAP-23              -- 
ff52  ff            TRAP-23              -- 
ff53  ff            TRAP-23              -- 
ff54  ff            TRAP-23              -- 
ff55  ff            TRAP-23              -- 
ff56  ff            TRAP-23              -- 
ff57  ff            TRAP-23              -- 
ff58  ff            TRAP-23              -- 
ff59  ff            TRAP-23              -- 
ff5a  ff            TRAP-23              -- 
ff5b  ff            TRAP-23              -- 
ff5c  ff            TRAP-23              -- 
ff5d  ff            TRAP-23              -- 
ff5e  ff            TRAP-23              -- 
ff5f  ff            TRAP-23              -- 
ff60  ff            TRAP-23              -- 
ff61  ff            TRAP-23              -- 
ff62  ff            TRAP-23              -- 
ff63  ff            TRAP-23              -- 
ff64  ff            TRAP-23              -- 
ff65  ff            TRAP-23              -- 
ff66  ff            TRAP-23              -- 
ff67  ff            TRAP-23              -- 
ff68  ff            TRAP-23              -- 
ff69  ff            TRAP-23              -- 
ff6a  ff            TRAP-23              -- 
ff6b  ff            TRAP-23              -- 
ff6c  ff            TRAP-23              -- 
ff6d  ff            TRAP-23              -- 
ff6e  ff            TRAP-23              -- 
ff6f  ff            TRAP-23              -- 
ff70  ff            TRAP-23              -- 
ff71  ff            TRAP-23              -- 
ff72  ff            TRAP-23              -- 
ff73  ff            TRAP-23              -- 
ff74  ff            TRAP-23              -- 
ff75  ff            TRAP-23              -- 
ff76  ff            TRAP-23              -- 
ff77  ff            TRAP-23              -- 
ff78  ff            TRAP-23              -- 
ff79  ff            TRAP-23              -- 
ff7a  ff            TRAP-23              -- 
ff7b  ff            TRAP-23              -- 
ff7c  ff            TRAP-23              -- 
ff7d  ff            TRAP-23              -- 
ff7e  ff            TRAP-23              -- 
ff7f  ff            TRAP-23              -- 
ff80  ff            TRAP-23              -- 
ff81  ff            TRAP-23              -- 
ff82  ff            TRAP-23              -- 
ff83  ff            TRAP-23              -- 
ff84  ff            TRAP-23              -- 
ff85  ff            TRAP-23              -- 
ff86  ff            TRAP-23              -- 
ff87  ff            TRAP-23              -- 
ff88  ff            TRAP-23              -- 
ff89  ff            TRAP-23              -- 
ff8a  ff            TRAP-23              -- 
ff8b  ff            TRAP-23              -- 
ff8c  ff            TRAP-23              -- 
ff8d  ff            TRAP-23              -- 
ff8e  ff            TRAP-23              -- 
ff8f  ff            TRAP-23              -- 
ff90  ff            TRAP-23              -- 
ff91  ff            TRAP-23              -- 
ff92  ff            TRAP-23              -- 
ff93  ff            TRAP-23              -- 
ff94  ff            TRAP-23              -- 
ff95  ff            TRAP-23              -- 
ff96  ff            TRAP-23              -- 
ff97  ff            TRAP-23              -- 
ff98  ff            TRAP-23              -- 
ff99  ff            TRAP-23              -- 
ff9a  ff            TRAP-23              -- 
ff9b  ff            TRAP-23              -- 
ff9c  ff            TRAP-23              -- 
ff9d  ff            TRAP-23              -- 
ff9e  ff            TRAP-23              -- 
ff9f  ff            TRAP-23              -- 
ffa0  ff            TRAP-23              -- 
ffa1  ff            TRAP-23              -- 
ffa2  ff            TRAP-23              -- 
ffa3  ff            TRAP-23              -- 
ffa4  ff            TRAP-23              -- 
ffa5  ff            TRAP-23              -- 
ffa6  ff            TRAP-23              -- 
ffa7  ff            TRAP-23              -- 
ffa8  ff            TRAP-23              -- 
ffa9  ff            TRAP-23              -- 
ffaa  ff            TRAP-23              -- 
ffab  ff            TRAP-23              -- 
ffac  ff            TRAP-23              -- 
ffad  ff            TRAP-23              -- 
ffae  ff            TRAP-23              -- 
ffaf  ff            TRAP-23              -- 
ffb0  ff            TRAP-23              -- 
ffb1  ff            TRAP-23              -- 
ffb2  ff            TRAP-23              -- 
ffb3  ff            TRAP-23              -- 
ffb4  ff            TRAP-23              -- 
ffb5  ff            TRAP-23              -- 
ffb6  ff            TRAP-23              -- 
ffb7  ff            TRAP-23              -- 
ffb8  ff            TRAP-23              -- 
ffb9  ff            TRAP-23              -- 
ffba  ff            TRAP-23              -- 
ffbb  ff            TRAP-23              -- 
ffbc  ff            TRAP-23              -- 
ffbd  ff            TRAP-23              -- 
ffbe  ff            TRAP-23              -- 
ffbf  ff            TRAP-23              -- 
ffc0  ff            TRAP-23              -- 
ffc1  ff            TRAP-23              -- 
ffc2  ff            TRAP-23              -- 
ffc3  ff            TRAP-23              -- 
ffc4  ff            TRAP-23              -- 
ffc5  ff            TRAP-23              -- 
ffc6  ff            TRAP-23              -- 
ffc7  ff            TRAP-23              -- 
ffc8  ff            TRAP-23              -- 
ffc9  ff            TRAP-23              -- 
ffca  ff            TRAP-23              -- 
ffcb  ff            TRAP-23              -- 
ffcc  ff            TRAP-23              -- 
ffcd  ff            TRAP-23              -- 
ffce  ff            TRAP-23              -- 
ffcf  ff            TRAP-23              -- 
ffd0  ff            TRAP-23              -- 
ffd1  ff            TRAP-23              -- 
ffd2  ff            TRAP-23              -- 
ffd3  ff            TRAP-23              -- 
ffd4  ff            TRAP-23              -- 
ffd5  ff            TRAP-23              -- 
ffd6  ff            TRAP-23              -- 
ffd7  ff            TRAP-23              -- 
UNKNOWN_VECTOR:
ffd8        efff                
UNKNOWN_VECTOR:
ffda        eff0                
UNKNOWN_VECTOR:
ffdc        ef04                
UNKNOWN_VECTOR:
ffde        efe0                
UNKNOWN_VECTOR:
ffe0        efd3                
UNKNOWN_VECTOR:
ffe2        efc9                
UNKNOWN_VECTOR:
ffe4        efc2                
UNKNOWN_VECTOR:
ffe6        efbc                
UNKNOWN_VECTOR:
ffe8        efb6                
UNKNOWN_VECTOR:
ffea        efb0                
UNKNOWN_VECTOR:
ffec        e2ca                
UNKNOWN_VECTOR:
ffee        ef0e                
UNKNOWN_VECTOR:
fff0        e285                
UNKNOWN_VECTOR:
fff2        ef1d                
INT5_VECTOR:
fff4        ecf0                
INT4_VECTOR:
fff6        efa6                
INT3_VECTOR:
fff8        f005                
INT2_VECTOR:
fffa        e8bf                
INT1_VECTOR:
fffc        e2f9                
RESET_VECTOR:
fffe        f559                
